TN:
SF:/home/runner/work/ad-rss-lib/ad-rss-lib/ad_rss_map_integration/impl/include/ad/rss/map/RssObjectData.hpp
FN:34,_ZN2ad3rss3map13RssObjectDataD2Ev
FN:34,_ZN2ad3rss3map13RssObjectDataC2Ev
FNDA:0,_ZN2ad3rss3map13RssObjectDataD2Ev
FNDA:0,_ZN2ad3rss3map13RssObjectDataC2Ev
FNF:2
FNH:0
DA:34,0
LF:1
LH:0
end_of_record
SF:/home/runner/work/ad-rss-lib/ad-rss-lib/ad_rss_map_integration/impl/include/ad/rss/map/RssSceneCreation.hpp
FN:53,_ZN2ad3rss3map16RssSceneCreationD2Ev
FNDA:0,_ZN2ad3rss3map16RssSceneCreationD2Ev
FNF:1
FNH:0
DA:53,0
LF:1
LH:0
end_of_record
SF:/home/runner/work/ad-rss-lib/ad-rss-lib/ad_rss_map_integration/impl/tests/RssSceneCreationTest.hpp
FN:25,_ZN20RssSceneCreationTestD0Ev
FN:25,_ZN20RssSceneCreationTestD2Ev
FN:25,_ZN20RssSceneCreationTestC2Ev
FN:47,_ZN20RssSceneCreationTest23getUnstructuredSettingsEv
FN:58,_ZN20RssSceneCreationTest21getEgoVehicleDynamicsEN2ad7physics5SpeedE
FN:80,_ZN20RssSceneCreationTest24getObjectVehicleDynamicsEN2ad7physics5SpeedE
FN:111,_ZN20RssSceneCreationTest7initMapEv
FN:145,_ZN20RssSceneCreationTest5SetUpEv
FN:153,_ZN20RssSceneCreationTest8TearDownEv
FN:157,_ZN20RssSceneCreationTest19initializeObjectGeoERKSt5tupleIJN2ad3map5point9LongitudeENS3_8LatitudeEdEERNS2_5match6ObjectE
FN:166,_ZN20RssSceneCreationTest19initializeObjectENUERKN2ad3map5point8ENUPointERKNS2_10ENUHeadingERNS1_5match6ObjectE
FN:189,_ZN20RssSceneCreationTest17checkSceneResultsERKN2ad3rss5world10WorldModelERKmRKSt6vectorISt5tupleIJNS1_9situation13SituationTypeEmmNS0_7physics5SpeedEEESaISE_EE
FN:206,_ZZN20RssSceneCreationTest17checkSceneResultsERKN2ad3rss5world10WorldModelERKmRKSt6vectorISt5tupleIJNS1_9situation13SituationTypeEmmNS0_7physics5SpeedEEESaISE_EEENUlRKSE_E_C2ERKSL_
FN:206,_ZZN20RssSceneCreationTest17checkSceneResultsERKN2ad3rss5world10WorldModelERKmRKSt6vectorISt5tupleIJNS1_9situation13SituationTypeEmmNS0_7physics5SpeedEEESaISE_EEENKUlRKSE_E_clESK_
FN:206,_ZZN20RssSceneCreationTest17checkSceneResultsERKN2ad3rss5world10WorldModelERKmRKSt6vectorISt5tupleIJNS1_9situation13SituationTypeEmmNS0_7physics5SpeedEEESaISE_EEENUlRKSE_E_D2Ev
FN:227,_ZN20RssSceneCreationTest15shortenEgoRouteERKSt5tupleIJN2ad3map5point9LongitudeENS3_8LatitudeEdEE
FN:240,_ZN20RssSceneCreationTest16performSceneTestERKSt5tupleIJN2ad3map5point9LongitudeENS3_8LatitudeEdEES8_RKSt6vectorIS0_IJNS1_3rss9situation13SituationTypeEmmNS1_7physics5SpeedEEESaISF_EE
FN:303,_ZN26RssSceneCreationTestTown01D2Ev
FN:303,_ZN26RssSceneCreationTestTown01C2Ev
FN:303,_ZN26RssSceneCreationTestTown01D0Ev
FN:305,_ZN26RssSceneCreationTestTown0112getMapToLoadEv
FN:310,_ZN26RssSceneCreationTestTown0120initializeEgoVehicleEv
FN:351,_ZN26RssSceneCreationTestTown0121locationSouthIncomingEv
FN:358,_ZN26RssSceneCreationTestTown0121locationSouthEnteringEv
FN:364,_ZN26RssSceneCreationTestTown0118locationSouth2EastEv
FN:370,_ZN26RssSceneCreationTestTown0119locationEastExitingEv
FN:376,_ZN26RssSceneCreationTestTown0120locationEastOutgoingEv
FN:383,_ZN26RssSceneCreationTestTown0120locationEastIncomingEv
FN:390,_ZN26RssSceneCreationTestTown0120locationEastEnteringEv
FN:446,_ZN26RssSceneCreationTestTown0118locationEast2SouthEv
FN:453,_ZN26RssSceneCreationTestTown0120locationSouthExitingEv
FN:459,_ZN26RssSceneCreationTestTown0121locationSouthOutgoingEv
FN:466,_ZN29RssSceneCreationTestWithRouteC2Ev
FN:466,_ZN29RssSceneCreationTestWithRouteD2Ev
FN:466,_ZN29RssSceneCreationTestWithRouteD0Ev
FN:468,_ZN29RssSceneCreationTestWithRoute11getTestModeEv
FN:474,_ZN32RssSceneCreationTestWithoutRouteD2Ev
FN:474,_ZN32RssSceneCreationTestWithoutRouteD0Ev
FN:474,_ZN32RssSceneCreationTestWithoutRouteC2Ev
FN:476,_ZN32RssSceneCreationTestWithoutRoute11getTestModeEv
FNDA:0,_ZN20RssSceneCreationTestD0Ev
FNDA:0,_ZN20RssSceneCreationTestD2Ev
FNDA:0,_ZN20RssSceneCreationTestC2Ev
FNDA:0,_ZN20RssSceneCreationTest23getUnstructuredSettingsEv
FNDA:0,_ZN20RssSceneCreationTest21getEgoVehicleDynamicsEN2ad7physics5SpeedE
FNDA:0,_ZN20RssSceneCreationTest24getObjectVehicleDynamicsEN2ad7physics5SpeedE
FNDA:0,_ZN20RssSceneCreationTest7initMapEv
FNDA:0,_ZN20RssSceneCreationTest5SetUpEv
FNDA:0,_ZN20RssSceneCreationTest8TearDownEv
FNDA:0,_ZN20RssSceneCreationTest19initializeObjectGeoERKSt5tupleIJN2ad3map5point9LongitudeENS3_8LatitudeEdEERNS2_5match6ObjectE
FNDA:0,_ZN20RssSceneCreationTest19initializeObjectENUERKN2ad3map5point8ENUPointERKNS2_10ENUHeadingERNS1_5match6ObjectE
FNDA:0,_ZN20RssSceneCreationTest17checkSceneResultsERKN2ad3rss5world10WorldModelERKmRKSt6vectorISt5tupleIJNS1_9situation13SituationTypeEmmNS0_7physics5SpeedEEESaISE_EE
FNDA:0,_ZZN20RssSceneCreationTest17checkSceneResultsERKN2ad3rss5world10WorldModelERKmRKSt6vectorISt5tupleIJNS1_9situation13SituationTypeEmmNS0_7physics5SpeedEEESaISE_EEENUlRKSE_E_C2ERKSL_
FNDA:0,_ZZN20RssSceneCreationTest17checkSceneResultsERKN2ad3rss5world10WorldModelERKmRKSt6vectorISt5tupleIJNS1_9situation13SituationTypeEmmNS0_7physics5SpeedEEESaISE_EEENKUlRKSE_E_clESK_
FNDA:0,_ZZN20RssSceneCreationTest17checkSceneResultsERKN2ad3rss5world10WorldModelERKmRKSt6vectorISt5tupleIJNS1_9situation13SituationTypeEmmNS0_7physics5SpeedEEESaISE_EEENUlRKSE_E_D2Ev
FNDA:0,_ZN20RssSceneCreationTest15shortenEgoRouteERKSt5tupleIJN2ad3map5point9LongitudeENS3_8LatitudeEdEE
FNDA:0,_ZN20RssSceneCreationTest16performSceneTestERKSt5tupleIJN2ad3map5point9LongitudeENS3_8LatitudeEdEES8_RKSt6vectorIS0_IJNS1_3rss9situation13SituationTypeEmmNS1_7physics5SpeedEEESaISF_EE
FNDA:0,_ZN26RssSceneCreationTestTown01D2Ev
FNDA:0,_ZN26RssSceneCreationTestTown01C2Ev
FNDA:0,_ZN26RssSceneCreationTestTown01D0Ev
FNDA:0,_ZN26RssSceneCreationTestTown0112getMapToLoadEv
FNDA:0,_ZN26RssSceneCreationTestTown0120initializeEgoVehicleEv
FNDA:0,_ZN26RssSceneCreationTestTown0121locationSouthIncomingEv
FNDA:0,_ZN26RssSceneCreationTestTown0121locationSouthEnteringEv
FNDA:0,_ZN26RssSceneCreationTestTown0118locationSouth2EastEv
FNDA:0,_ZN26RssSceneCreationTestTown0119locationEastExitingEv
FNDA:0,_ZN26RssSceneCreationTestTown0120locationEastOutgoingEv
FNDA:0,_ZN26RssSceneCreationTestTown0120locationEastIncomingEv
FNDA:0,_ZN26RssSceneCreationTestTown0120locationEastEnteringEv
FNDA:0,_ZN26RssSceneCreationTestTown0118locationEast2SouthEv
FNDA:0,_ZN26RssSceneCreationTestTown0120locationSouthExitingEv
FNDA:0,_ZN26RssSceneCreationTestTown0121locationSouthOutgoingEv
FNDA:0,_ZN29RssSceneCreationTestWithRouteC2Ev
FNDA:0,_ZN29RssSceneCreationTestWithRouteD2Ev
FNDA:0,_ZN29RssSceneCreationTestWithRouteD0Ev
FNDA:0,_ZN29RssSceneCreationTestWithRoute11getTestModeEv
FNDA:0,_ZN32RssSceneCreationTestWithoutRouteD2Ev
FNDA:0,_ZN32RssSceneCreationTestWithoutRouteD0Ev
FNDA:0,_ZN32RssSceneCreationTestWithoutRouteC2Ev
FNDA:0,_ZN32RssSceneCreationTestWithoutRoute11getTestModeEv
FNF:40
FNH:0
DA:25,0
DA:47,0
DA:49,0
DA:50,0
DA:51,0
DA:52,0
DA:53,0
DA:54,0
DA:55,0
DA:58,0
DA:61,0
DA:62,0
DA:63,0
DA:65,0
DA:66,0
DA:67,0
DA:68,0
DA:70,0
DA:72,0
DA:73,0
DA:75,0
DA:77,0
DA:80,0
DA:83,0
DA:84,0
DA:85,0
DA:87,0
DA:88,0
DA:89,0
DA:90,0
DA:92,0
DA:94,0
DA:95,0
DA:97,0
DA:99,0
DA:111,0
DA:115,0
DA:116,0
DA:118,0
DA:119,0
DA:123,0
DA:124,0
DA:127,0
DA:129,0
DA:130,0
DA:132,0
DA:136,0
DA:137,0
DA:139,0
DA:145,0
DA:149,0
DA:150,0
DA:151,0
DA:153,0
DA:155,0
DA:157,0
DA:159,0
DA:160,0
DA:161,0
DA:162,0
DA:163,0
DA:164,0
DA:166,0
DA:170,0
DA:171,0
DA:172,0
DA:173,0
DA:174,0
DA:175,0
DA:177,0
DA:179,0
DA:181,0
DA:183,0
DA:189,0
DA:193,0
DA:194,0
DA:196,0
DA:197,0
DA:199,0
DA:200,0
DA:201,0
DA:202,0
DA:206,0
DA:207,0
DA:208,0
DA:209,0
DA:210,0
DA:211,0
DA:212,0
DA:214,0
DA:218,0
DA:221,0
DA:222,0
DA:223,0
DA:224,0
DA:227,0
DA:229,0
DA:231,0
DA:233,0
DA:235,0
DA:236,0
DA:240,0
DA:244,0
DA:246,0
DA:247,0
DA:249,0
DA:250,0
DA:251,0
DA:252,0
DA:254,0
DA:256,0
DA:258,0
DA:259,0
DA:260,0
DA:262,0
DA:263,0
DA:266,0
DA:267,0
DA:268,0
DA:269,0
DA:270,0
DA:271,0
DA:272,0
DA:273,0
DA:275,0
DA:276,0
DA:277,0
DA:278,0
DA:279,0
DA:280,0
DA:281,0
DA:282,0
DA:284,0
DA:289,0
DA:291,0
DA:292,0
DA:293,0
DA:303,0
DA:305,0
DA:307,0
DA:310,0
DA:314,0
DA:316,0
DA:318,0
DA:319,0
DA:320,0
DA:325,0
DA:327,0
DA:329,0
DA:331,0
DA:332,0
DA:351,0
DA:355,0
DA:358,0
DA:361,0
DA:364,0
DA:367,0
DA:370,0
DA:373,0
DA:376,0
DA:380,0
DA:383,0
DA:387,0
DA:390,0
DA:393,0
DA:446,0
DA:450,0
DA:453,0
DA:456,0
DA:459,0
DA:462,0
DA:466,0
DA:468,0
DA:470,0
DA:474,0
DA:476,0
DA:478,0
LF:177
LH:0
end_of_record
SF:/home/runner/work/ad-rss-lib/ad-rss-lib/ad_rss_map_integration/impl/tests/RssSceneCreationTestEgoSouth2EastOtherEast2South.cpp
FN:11,_ZN57RssSceneCreationTestWithRouteEgoSouth2EastOtherEast2SouthD2Ev
FN:11,_ZN57RssSceneCreationTestWithRouteEgoSouth2EastOtherEast2SouthC2Ev
FN:11,_ZN57RssSceneCreationTestWithRouteEgoSouth2EastOtherEast2SouthD0Ev
FN:30,_ZN68RssSceneCreationTestWithRouteEgoSouth2EastOtherEast2South_e0_o0_TestC2Ev
FN:30,_ZN68RssSceneCreationTestWithRouteEgoSouth2EastOtherEast2South_e0_o0_TestD0Ev
FN:30,_ZN68RssSceneCreationTestWithRouteEgoSouth2EastOtherEast2South_e0_o0_Test8TestBodyEv
FN:30,_ZN68RssSceneCreationTestWithRouteEgoSouth2EastOtherEast2South_e0_o0_TestD2Ev
FN:41,_ZN68RssSceneCreationTestWithRouteEgoSouth2EastOtherEast2South_e0_o1_Test8TestBodyEv
FN:41,_ZN68RssSceneCreationTestWithRouteEgoSouth2EastOtherEast2South_e0_o1_TestC2Ev
FN:41,_ZN68RssSceneCreationTestWithRouteEgoSouth2EastOtherEast2South_e0_o1_TestD0Ev
FN:41,_ZN68RssSceneCreationTestWithRouteEgoSouth2EastOtherEast2South_e0_o1_TestD2Ev
FN:52,_ZN68RssSceneCreationTestWithRouteEgoSouth2EastOtherEast2South_e0_o2_TestD2Ev
FN:52,_ZN68RssSceneCreationTestWithRouteEgoSouth2EastOtherEast2South_e0_o2_TestD0Ev
FN:52,_ZN68RssSceneCreationTestWithRouteEgoSouth2EastOtherEast2South_e0_o2_Test8TestBodyEv
FN:52,_ZN68RssSceneCreationTestWithRouteEgoSouth2EastOtherEast2South_e0_o2_TestC2Ev
FN:65,_ZN68RssSceneCreationTestWithRouteEgoSouth2EastOtherEast2South_e0_o3_TestD2Ev
FN:65,_ZN68RssSceneCreationTestWithRouteEgoSouth2EastOtherEast2South_e0_o3_TestC2Ev
FN:65,_ZN68RssSceneCreationTestWithRouteEgoSouth2EastOtherEast2South_e0_o3_Test8TestBodyEv
FN:65,_ZN68RssSceneCreationTestWithRouteEgoSouth2EastOtherEast2South_e0_o3_TestD0Ev
FN:75,_ZN68RssSceneCreationTestWithRouteEgoSouth2EastOtherEast2South_e0_o4_TestD0Ev
FN:75,_ZN68RssSceneCreationTestWithRouteEgoSouth2EastOtherEast2South_e0_o4_TestC2Ev
FN:75,_ZN68RssSceneCreationTestWithRouteEgoSouth2EastOtherEast2South_e0_o4_Test8TestBodyEv
FN:75,_ZN68RssSceneCreationTestWithRouteEgoSouth2EastOtherEast2South_e0_o4_TestD2Ev
FN:85,_ZN68RssSceneCreationTestWithRouteEgoSouth2EastOtherEast2South_e1_o0_TestD2Ev
FN:85,_ZN68RssSceneCreationTestWithRouteEgoSouth2EastOtherEast2South_e1_o0_TestD0Ev
FN:85,_ZN68RssSceneCreationTestWithRouteEgoSouth2EastOtherEast2South_e1_o0_TestC2Ev
FN:85,_ZN68RssSceneCreationTestWithRouteEgoSouth2EastOtherEast2South_e1_o0_Test8TestBodyEv
FN:96,_ZN68RssSceneCreationTestWithRouteEgoSouth2EastOtherEast2South_e1_o1_TestD2Ev
FN:96,_ZN68RssSceneCreationTestWithRouteEgoSouth2EastOtherEast2South_e1_o1_TestD0Ev
FN:96,_ZN68RssSceneCreationTestWithRouteEgoSouth2EastOtherEast2South_e1_o1_Test8TestBodyEv
FN:96,_ZN68RssSceneCreationTestWithRouteEgoSouth2EastOtherEast2South_e1_o1_TestC2Ev
FN:107,_ZN68RssSceneCreationTestWithRouteEgoSouth2EastOtherEast2South_e1_o2_TestD0Ev
FN:107,_ZN68RssSceneCreationTestWithRouteEgoSouth2EastOtherEast2South_e1_o2_TestD2Ev
FN:107,_ZN68RssSceneCreationTestWithRouteEgoSouth2EastOtherEast2South_e1_o2_Test8TestBodyEv
FN:107,_ZN68RssSceneCreationTestWithRouteEgoSouth2EastOtherEast2South_e1_o2_TestC2Ev
FN:118,_ZN68RssSceneCreationTestWithRouteEgoSouth2EastOtherEast2South_e1_o3_TestD0Ev
FN:118,_ZN68RssSceneCreationTestWithRouteEgoSouth2EastOtherEast2South_e1_o3_Test8TestBodyEv
FN:118,_ZN68RssSceneCreationTestWithRouteEgoSouth2EastOtherEast2South_e1_o3_TestD2Ev
FN:118,_ZN68RssSceneCreationTestWithRouteEgoSouth2EastOtherEast2South_e1_o3_TestC2Ev
FN:130,_ZN68RssSceneCreationTestWithRouteEgoSouth2EastOtherEast2South_e1_o4_TestD0Ev
FN:130,_ZN68RssSceneCreationTestWithRouteEgoSouth2EastOtherEast2South_e1_o4_Test8TestBodyEv
FN:130,_ZN68RssSceneCreationTestWithRouteEgoSouth2EastOtherEast2South_e1_o4_TestD2Ev
FN:130,_ZN68RssSceneCreationTestWithRouteEgoSouth2EastOtherEast2South_e1_o4_TestC2Ev
FN:140,_ZN68RssSceneCreationTestWithRouteEgoSouth2EastOtherEast2South_e2_o0_Test8TestBodyEv
FN:140,_ZN68RssSceneCreationTestWithRouteEgoSouth2EastOtherEast2South_e2_o0_TestD0Ev
FN:140,_ZN68RssSceneCreationTestWithRouteEgoSouth2EastOtherEast2South_e2_o0_TestC2Ev
FN:140,_ZN68RssSceneCreationTestWithRouteEgoSouth2EastOtherEast2South_e2_o0_TestD2Ev
FN:151,_ZN68RssSceneCreationTestWithRouteEgoSouth2EastOtherEast2South_e2_o1_TestD2Ev
FN:151,_ZN68RssSceneCreationTestWithRouteEgoSouth2EastOtherEast2South_e2_o1_TestD0Ev
FN:151,_ZN68RssSceneCreationTestWithRouteEgoSouth2EastOtherEast2South_e2_o1_Test8TestBodyEv
FN:151,_ZN68RssSceneCreationTestWithRouteEgoSouth2EastOtherEast2South_e2_o1_TestC2Ev
FN:162,_ZN68RssSceneCreationTestWithRouteEgoSouth2EastOtherEast2South_e2_o2_Test8TestBodyEv
FN:162,_ZN68RssSceneCreationTestWithRouteEgoSouth2EastOtherEast2South_e2_o2_TestC2Ev
FN:162,_ZN68RssSceneCreationTestWithRouteEgoSouth2EastOtherEast2South_e2_o2_TestD2Ev
FN:162,_ZN68RssSceneCreationTestWithRouteEgoSouth2EastOtherEast2South_e2_o2_TestD0Ev
FN:173,_ZN68RssSceneCreationTestWithRouteEgoSouth2EastOtherEast2South_e2_o3_TestC2Ev
FN:173,_ZN68RssSceneCreationTestWithRouteEgoSouth2EastOtherEast2South_e2_o3_TestD2Ev
FN:173,_ZN68RssSceneCreationTestWithRouteEgoSouth2EastOtherEast2South_e2_o3_TestD0Ev
FN:173,_ZN68RssSceneCreationTestWithRouteEgoSouth2EastOtherEast2South_e2_o3_Test8TestBodyEv
FN:183,_ZN68RssSceneCreationTestWithRouteEgoSouth2EastOtherEast2South_e2_o4_Test8TestBodyEv
FN:183,_ZN68RssSceneCreationTestWithRouteEgoSouth2EastOtherEast2South_e2_o4_TestD0Ev
FN:183,_ZN68RssSceneCreationTestWithRouteEgoSouth2EastOtherEast2South_e2_o4_TestC2Ev
FN:183,_ZN68RssSceneCreationTestWithRouteEgoSouth2EastOtherEast2South_e2_o4_TestD2Ev
FN:193,_ZN68RssSceneCreationTestWithRouteEgoSouth2EastOtherEast2South_e3_o0_TestD0Ev
FN:193,_ZN68RssSceneCreationTestWithRouteEgoSouth2EastOtherEast2South_e3_o0_TestD2Ev
FN:193,_ZN68RssSceneCreationTestWithRouteEgoSouth2EastOtherEast2South_e3_o0_Test8TestBodyEv
FN:193,_ZN68RssSceneCreationTestWithRouteEgoSouth2EastOtherEast2South_e3_o0_TestC2Ev
FN:203,_ZN68RssSceneCreationTestWithRouteEgoSouth2EastOtherEast2South_e3_o1_TestC2Ev
FN:203,_ZN68RssSceneCreationTestWithRouteEgoSouth2EastOtherEast2South_e3_o1_Test8TestBodyEv
FN:203,_ZN68RssSceneCreationTestWithRouteEgoSouth2EastOtherEast2South_e3_o1_TestD0Ev
FN:203,_ZN68RssSceneCreationTestWithRouteEgoSouth2EastOtherEast2South_e3_o1_TestD2Ev
FN:217,_ZN68RssSceneCreationTestWithRouteEgoSouth2EastOtherEast2South_e3_o2_Test8TestBodyEv
FN:217,_ZN68RssSceneCreationTestWithRouteEgoSouth2EastOtherEast2South_e3_o2_TestD2Ev
FN:217,_ZN68RssSceneCreationTestWithRouteEgoSouth2EastOtherEast2South_e3_o2_TestC2Ev
FN:217,_ZN68RssSceneCreationTestWithRouteEgoSouth2EastOtherEast2South_e3_o2_TestD0Ev
FN:227,_ZN68RssSceneCreationTestWithRouteEgoSouth2EastOtherEast2South_e3_o3_Test8TestBodyEv
FN:227,_ZN68RssSceneCreationTestWithRouteEgoSouth2EastOtherEast2South_e3_o3_TestD0Ev
FN:227,_ZN68RssSceneCreationTestWithRouteEgoSouth2EastOtherEast2South_e3_o3_TestC2Ev
FN:227,_ZN68RssSceneCreationTestWithRouteEgoSouth2EastOtherEast2South_e3_o3_TestD2Ev
FN:237,_ZN68RssSceneCreationTestWithRouteEgoSouth2EastOtherEast2South_e3_o4_Test8TestBodyEv
FN:237,_ZN68RssSceneCreationTestWithRouteEgoSouth2EastOtherEast2South_e3_o4_TestD0Ev
FN:237,_ZN68RssSceneCreationTestWithRouteEgoSouth2EastOtherEast2South_e3_o4_TestD2Ev
FN:237,_ZN68RssSceneCreationTestWithRouteEgoSouth2EastOtherEast2South_e3_o4_TestC2Ev
FN:247,_ZN68RssSceneCreationTestWithRouteEgoSouth2EastOtherEast2South_e4_o0_TestD2Ev
FN:247,_ZN68RssSceneCreationTestWithRouteEgoSouth2EastOtherEast2South_e4_o0_Test8TestBodyEv
FN:247,_ZN68RssSceneCreationTestWithRouteEgoSouth2EastOtherEast2South_e4_o0_TestC2Ev
FN:247,_ZN68RssSceneCreationTestWithRouteEgoSouth2EastOtherEast2South_e4_o0_TestD0Ev
FN:257,_ZN68RssSceneCreationTestWithRouteEgoSouth2EastOtherEast2South_e4_o1_TestD0Ev
FN:257,_ZN68RssSceneCreationTestWithRouteEgoSouth2EastOtherEast2South_e4_o1_Test8TestBodyEv
FN:257,_ZN68RssSceneCreationTestWithRouteEgoSouth2EastOtherEast2South_e4_o1_TestC2Ev
FN:257,_ZN68RssSceneCreationTestWithRouteEgoSouth2EastOtherEast2South_e4_o1_TestD2Ev
FN:267,_ZN68RssSceneCreationTestWithRouteEgoSouth2EastOtherEast2South_e4_o2_Test8TestBodyEv
FN:267,_ZN68RssSceneCreationTestWithRouteEgoSouth2EastOtherEast2South_e4_o2_TestD0Ev
FN:267,_ZN68RssSceneCreationTestWithRouteEgoSouth2EastOtherEast2South_e4_o2_TestD2Ev
FN:267,_ZN68RssSceneCreationTestWithRouteEgoSouth2EastOtherEast2South_e4_o2_TestC2Ev
FN:277,_ZN68RssSceneCreationTestWithRouteEgoSouth2EastOtherEast2South_e4_o3_TestD0Ev
FN:277,_ZN68RssSceneCreationTestWithRouteEgoSouth2EastOtherEast2South_e4_o3_TestD2Ev
FN:277,_ZN68RssSceneCreationTestWithRouteEgoSouth2EastOtherEast2South_e4_o3_Test8TestBodyEv
FN:277,_ZN68RssSceneCreationTestWithRouteEgoSouth2EastOtherEast2South_e4_o3_TestC2Ev
FN:287,_ZN68RssSceneCreationTestWithRouteEgoSouth2EastOtherEast2South_e4_o4_TestC2Ev
FN:287,_ZN68RssSceneCreationTestWithRouteEgoSouth2EastOtherEast2South_e4_o4_Test8TestBodyEv
FN:287,_ZN68RssSceneCreationTestWithRouteEgoSouth2EastOtherEast2South_e4_o4_TestD2Ev
FN:287,_ZN68RssSceneCreationTestWithRouteEgoSouth2EastOtherEast2South_e4_o4_TestD0Ev
FN:297,_ZN60RssSceneCreationTestWithoutRouteEgoSouth2EastOtherEast2SouthD0Ev
FN:297,_ZN60RssSceneCreationTestWithoutRouteEgoSouth2EastOtherEast2SouthC2Ev
FN:297,_ZN60RssSceneCreationTestWithoutRouteEgoSouth2EastOtherEast2SouthD2Ev
FN:316,_ZN71RssSceneCreationTestWithoutRouteEgoSouth2EastOtherEast2South_e0_o0_TestD2Ev
FN:316,_ZN71RssSceneCreationTestWithoutRouteEgoSouth2EastOtherEast2South_e0_o0_Test8TestBodyEv
FN:316,_ZN71RssSceneCreationTestWithoutRouteEgoSouth2EastOtherEast2South_e0_o0_TestC2Ev
FN:316,_ZN71RssSceneCreationTestWithoutRouteEgoSouth2EastOtherEast2South_e0_o0_TestD0Ev
FN:343,_ZN71RssSceneCreationTestWithoutRouteEgoSouth2EastOtherEast2South_e2_o0_Test8TestBodyEv
FN:343,_ZN71RssSceneCreationTestWithoutRouteEgoSouth2EastOtherEast2South_e2_o0_TestD2Ev
FN:343,_ZN71RssSceneCreationTestWithoutRouteEgoSouth2EastOtherEast2South_e2_o0_TestD0Ev
FN:343,_ZN71RssSceneCreationTestWithoutRouteEgoSouth2EastOtherEast2South_e2_o0_TestC2Ev
FN:364,_ZN71RssSceneCreationTestWithoutRouteEgoSouth2EastOtherEast2South_e0_o4_Test8TestBodyEv
FN:364,_ZN71RssSceneCreationTestWithoutRouteEgoSouth2EastOtherEast2South_e0_o4_TestC2Ev
FN:364,_ZN71RssSceneCreationTestWithoutRouteEgoSouth2EastOtherEast2South_e0_o4_TestD0Ev
FN:364,_ZN71RssSceneCreationTestWithoutRouteEgoSouth2EastOtherEast2South_e0_o4_TestD2Ev
FN:372,_Z41__static_initialization_and_destruction_0ii
FN:372,_GLOBAL__sub_I__ZN68RssSceneCreationTestWithRouteEgoSouth2EastOtherEast2South_e0_o0_Test10test_info_E
FNDA:0,_ZN57RssSceneCreationTestWithRouteEgoSouth2EastOtherEast2SouthD2Ev
FNDA:0,_ZN57RssSceneCreationTestWithRouteEgoSouth2EastOtherEast2SouthC2Ev
FNDA:0,_ZN57RssSceneCreationTestWithRouteEgoSouth2EastOtherEast2SouthD0Ev
FNDA:0,_ZN68RssSceneCreationTestWithRouteEgoSouth2EastOtherEast2South_e0_o0_TestC2Ev
FNDA:0,_ZN68RssSceneCreationTestWithRouteEgoSouth2EastOtherEast2South_e0_o0_TestD0Ev
FNDA:0,_ZN68RssSceneCreationTestWithRouteEgoSouth2EastOtherEast2South_e0_o0_Test8TestBodyEv
FNDA:0,_ZN68RssSceneCreationTestWithRouteEgoSouth2EastOtherEast2South_e0_o0_TestD2Ev
FNDA:0,_ZN68RssSceneCreationTestWithRouteEgoSouth2EastOtherEast2South_e0_o1_Test8TestBodyEv
FNDA:0,_ZN68RssSceneCreationTestWithRouteEgoSouth2EastOtherEast2South_e0_o1_TestC2Ev
FNDA:0,_ZN68RssSceneCreationTestWithRouteEgoSouth2EastOtherEast2South_e0_o1_TestD0Ev
FNDA:0,_ZN68RssSceneCreationTestWithRouteEgoSouth2EastOtherEast2South_e0_o1_TestD2Ev
FNDA:0,_ZN68RssSceneCreationTestWithRouteEgoSouth2EastOtherEast2South_e0_o2_TestD2Ev
FNDA:0,_ZN68RssSceneCreationTestWithRouteEgoSouth2EastOtherEast2South_e0_o2_TestD0Ev
FNDA:0,_ZN68RssSceneCreationTestWithRouteEgoSouth2EastOtherEast2South_e0_o2_Test8TestBodyEv
FNDA:0,_ZN68RssSceneCreationTestWithRouteEgoSouth2EastOtherEast2South_e0_o2_TestC2Ev
FNDA:0,_ZN68RssSceneCreationTestWithRouteEgoSouth2EastOtherEast2South_e0_o3_TestD2Ev
FNDA:0,_ZN68RssSceneCreationTestWithRouteEgoSouth2EastOtherEast2South_e0_o3_TestC2Ev
FNDA:0,_ZN68RssSceneCreationTestWithRouteEgoSouth2EastOtherEast2South_e0_o3_Test8TestBodyEv
FNDA:0,_ZN68RssSceneCreationTestWithRouteEgoSouth2EastOtherEast2South_e0_o3_TestD0Ev
FNDA:0,_ZN68RssSceneCreationTestWithRouteEgoSouth2EastOtherEast2South_e0_o4_TestD0Ev
FNDA:0,_ZN68RssSceneCreationTestWithRouteEgoSouth2EastOtherEast2South_e0_o4_TestC2Ev
FNDA:0,_ZN68RssSceneCreationTestWithRouteEgoSouth2EastOtherEast2South_e0_o4_Test8TestBodyEv
FNDA:0,_ZN68RssSceneCreationTestWithRouteEgoSouth2EastOtherEast2South_e0_o4_TestD2Ev
FNDA:0,_ZN68RssSceneCreationTestWithRouteEgoSouth2EastOtherEast2South_e1_o0_TestD2Ev
FNDA:0,_ZN68RssSceneCreationTestWithRouteEgoSouth2EastOtherEast2South_e1_o0_TestD0Ev
FNDA:0,_ZN68RssSceneCreationTestWithRouteEgoSouth2EastOtherEast2South_e1_o0_TestC2Ev
FNDA:0,_ZN68RssSceneCreationTestWithRouteEgoSouth2EastOtherEast2South_e1_o0_Test8TestBodyEv
FNDA:0,_ZN68RssSceneCreationTestWithRouteEgoSouth2EastOtherEast2South_e1_o1_TestD2Ev
FNDA:0,_ZN68RssSceneCreationTestWithRouteEgoSouth2EastOtherEast2South_e1_o1_TestD0Ev
FNDA:0,_ZN68RssSceneCreationTestWithRouteEgoSouth2EastOtherEast2South_e1_o1_Test8TestBodyEv
FNDA:0,_ZN68RssSceneCreationTestWithRouteEgoSouth2EastOtherEast2South_e1_o1_TestC2Ev
FNDA:0,_ZN68RssSceneCreationTestWithRouteEgoSouth2EastOtherEast2South_e1_o2_TestD0Ev
FNDA:0,_ZN68RssSceneCreationTestWithRouteEgoSouth2EastOtherEast2South_e1_o2_TestD2Ev
FNDA:0,_ZN68RssSceneCreationTestWithRouteEgoSouth2EastOtherEast2South_e1_o2_Test8TestBodyEv
FNDA:0,_ZN68RssSceneCreationTestWithRouteEgoSouth2EastOtherEast2South_e1_o2_TestC2Ev
FNDA:0,_ZN68RssSceneCreationTestWithRouteEgoSouth2EastOtherEast2South_e1_o3_TestD0Ev
FNDA:0,_ZN68RssSceneCreationTestWithRouteEgoSouth2EastOtherEast2South_e1_o3_Test8TestBodyEv
FNDA:0,_ZN68RssSceneCreationTestWithRouteEgoSouth2EastOtherEast2South_e1_o3_TestD2Ev
FNDA:0,_ZN68RssSceneCreationTestWithRouteEgoSouth2EastOtherEast2South_e1_o3_TestC2Ev
FNDA:0,_ZN68RssSceneCreationTestWithRouteEgoSouth2EastOtherEast2South_e1_o4_TestD0Ev
FNDA:0,_ZN68RssSceneCreationTestWithRouteEgoSouth2EastOtherEast2South_e1_o4_Test8TestBodyEv
FNDA:0,_ZN68RssSceneCreationTestWithRouteEgoSouth2EastOtherEast2South_e1_o4_TestD2Ev
FNDA:0,_ZN68RssSceneCreationTestWithRouteEgoSouth2EastOtherEast2South_e1_o4_TestC2Ev
FNDA:0,_ZN68RssSceneCreationTestWithRouteEgoSouth2EastOtherEast2South_e2_o0_Test8TestBodyEv
FNDA:0,_ZN68RssSceneCreationTestWithRouteEgoSouth2EastOtherEast2South_e2_o0_TestD0Ev
FNDA:0,_ZN68RssSceneCreationTestWithRouteEgoSouth2EastOtherEast2South_e2_o0_TestC2Ev
FNDA:0,_ZN68RssSceneCreationTestWithRouteEgoSouth2EastOtherEast2South_e2_o0_TestD2Ev
FNDA:0,_ZN68RssSceneCreationTestWithRouteEgoSouth2EastOtherEast2South_e2_o1_TestD2Ev
FNDA:0,_ZN68RssSceneCreationTestWithRouteEgoSouth2EastOtherEast2South_e2_o1_TestD0Ev
FNDA:0,_ZN68RssSceneCreationTestWithRouteEgoSouth2EastOtherEast2South_e2_o1_Test8TestBodyEv
FNDA:0,_ZN68RssSceneCreationTestWithRouteEgoSouth2EastOtherEast2South_e2_o1_TestC2Ev
FNDA:0,_ZN68RssSceneCreationTestWithRouteEgoSouth2EastOtherEast2South_e2_o2_Test8TestBodyEv
FNDA:0,_ZN68RssSceneCreationTestWithRouteEgoSouth2EastOtherEast2South_e2_o2_TestC2Ev
FNDA:0,_ZN68RssSceneCreationTestWithRouteEgoSouth2EastOtherEast2South_e2_o2_TestD2Ev
FNDA:0,_ZN68RssSceneCreationTestWithRouteEgoSouth2EastOtherEast2South_e2_o2_TestD0Ev
FNDA:0,_ZN68RssSceneCreationTestWithRouteEgoSouth2EastOtherEast2South_e2_o3_TestC2Ev
FNDA:0,_ZN68RssSceneCreationTestWithRouteEgoSouth2EastOtherEast2South_e2_o3_TestD2Ev
FNDA:0,_ZN68RssSceneCreationTestWithRouteEgoSouth2EastOtherEast2South_e2_o3_TestD0Ev
FNDA:0,_ZN68RssSceneCreationTestWithRouteEgoSouth2EastOtherEast2South_e2_o3_Test8TestBodyEv
FNDA:0,_ZN68RssSceneCreationTestWithRouteEgoSouth2EastOtherEast2South_e2_o4_Test8TestBodyEv
FNDA:0,_ZN68RssSceneCreationTestWithRouteEgoSouth2EastOtherEast2South_e2_o4_TestD0Ev
FNDA:0,_ZN68RssSceneCreationTestWithRouteEgoSouth2EastOtherEast2South_e2_o4_TestC2Ev
FNDA:0,_ZN68RssSceneCreationTestWithRouteEgoSouth2EastOtherEast2South_e2_o4_TestD2Ev
FNDA:0,_ZN68RssSceneCreationTestWithRouteEgoSouth2EastOtherEast2South_e3_o0_TestD0Ev
FNDA:0,_ZN68RssSceneCreationTestWithRouteEgoSouth2EastOtherEast2South_e3_o0_TestD2Ev
FNDA:0,_ZN68RssSceneCreationTestWithRouteEgoSouth2EastOtherEast2South_e3_o0_Test8TestBodyEv
FNDA:0,_ZN68RssSceneCreationTestWithRouteEgoSouth2EastOtherEast2South_e3_o0_TestC2Ev
FNDA:0,_ZN68RssSceneCreationTestWithRouteEgoSouth2EastOtherEast2South_e3_o1_TestC2Ev
FNDA:0,_ZN68RssSceneCreationTestWithRouteEgoSouth2EastOtherEast2South_e3_o1_Test8TestBodyEv
FNDA:0,_ZN68RssSceneCreationTestWithRouteEgoSouth2EastOtherEast2South_e3_o1_TestD0Ev
FNDA:0,_ZN68RssSceneCreationTestWithRouteEgoSouth2EastOtherEast2South_e3_o1_TestD2Ev
FNDA:0,_ZN68RssSceneCreationTestWithRouteEgoSouth2EastOtherEast2South_e3_o2_Test8TestBodyEv
FNDA:0,_ZN68RssSceneCreationTestWithRouteEgoSouth2EastOtherEast2South_e3_o2_TestD2Ev
FNDA:0,_ZN68RssSceneCreationTestWithRouteEgoSouth2EastOtherEast2South_e3_o2_TestC2Ev
FNDA:0,_ZN68RssSceneCreationTestWithRouteEgoSouth2EastOtherEast2South_e3_o2_TestD0Ev
FNDA:0,_ZN68RssSceneCreationTestWithRouteEgoSouth2EastOtherEast2South_e3_o3_Test8TestBodyEv
FNDA:0,_ZN68RssSceneCreationTestWithRouteEgoSouth2EastOtherEast2South_e3_o3_TestD0Ev
FNDA:0,_ZN68RssSceneCreationTestWithRouteEgoSouth2EastOtherEast2South_e3_o3_TestC2Ev
FNDA:0,_ZN68RssSceneCreationTestWithRouteEgoSouth2EastOtherEast2South_e3_o3_TestD2Ev
FNDA:0,_ZN68RssSceneCreationTestWithRouteEgoSouth2EastOtherEast2South_e3_o4_Test8TestBodyEv
FNDA:0,_ZN68RssSceneCreationTestWithRouteEgoSouth2EastOtherEast2South_e3_o4_TestD0Ev
FNDA:0,_ZN68RssSceneCreationTestWithRouteEgoSouth2EastOtherEast2South_e3_o4_TestD2Ev
FNDA:0,_ZN68RssSceneCreationTestWithRouteEgoSouth2EastOtherEast2South_e3_o4_TestC2Ev
FNDA:0,_ZN68RssSceneCreationTestWithRouteEgoSouth2EastOtherEast2South_e4_o0_TestD2Ev
FNDA:0,_ZN68RssSceneCreationTestWithRouteEgoSouth2EastOtherEast2South_e4_o0_Test8TestBodyEv
FNDA:0,_ZN68RssSceneCreationTestWithRouteEgoSouth2EastOtherEast2South_e4_o0_TestC2Ev
FNDA:0,_ZN68RssSceneCreationTestWithRouteEgoSouth2EastOtherEast2South_e4_o0_TestD0Ev
FNDA:0,_ZN68RssSceneCreationTestWithRouteEgoSouth2EastOtherEast2South_e4_o1_TestD0Ev
FNDA:0,_ZN68RssSceneCreationTestWithRouteEgoSouth2EastOtherEast2South_e4_o1_Test8TestBodyEv
FNDA:0,_ZN68RssSceneCreationTestWithRouteEgoSouth2EastOtherEast2South_e4_o1_TestC2Ev
FNDA:0,_ZN68RssSceneCreationTestWithRouteEgoSouth2EastOtherEast2South_e4_o1_TestD2Ev
FNDA:0,_ZN68RssSceneCreationTestWithRouteEgoSouth2EastOtherEast2South_e4_o2_Test8TestBodyEv
FNDA:0,_ZN68RssSceneCreationTestWithRouteEgoSouth2EastOtherEast2South_e4_o2_TestD0Ev
FNDA:0,_ZN68RssSceneCreationTestWithRouteEgoSouth2EastOtherEast2South_e4_o2_TestD2Ev
FNDA:0,_ZN68RssSceneCreationTestWithRouteEgoSouth2EastOtherEast2South_e4_o2_TestC2Ev
FNDA:0,_ZN68RssSceneCreationTestWithRouteEgoSouth2EastOtherEast2South_e4_o3_TestD0Ev
FNDA:0,_ZN68RssSceneCreationTestWithRouteEgoSouth2EastOtherEast2South_e4_o3_TestD2Ev
FNDA:0,_ZN68RssSceneCreationTestWithRouteEgoSouth2EastOtherEast2South_e4_o3_Test8TestBodyEv
FNDA:0,_ZN68RssSceneCreationTestWithRouteEgoSouth2EastOtherEast2South_e4_o3_TestC2Ev
FNDA:0,_ZN68RssSceneCreationTestWithRouteEgoSouth2EastOtherEast2South_e4_o4_TestC2Ev
FNDA:0,_ZN68RssSceneCreationTestWithRouteEgoSouth2EastOtherEast2South_e4_o4_Test8TestBodyEv
FNDA:0,_ZN68RssSceneCreationTestWithRouteEgoSouth2EastOtherEast2South_e4_o4_TestD2Ev
FNDA:0,_ZN68RssSceneCreationTestWithRouteEgoSouth2EastOtherEast2South_e4_o4_TestD0Ev
FNDA:0,_ZN60RssSceneCreationTestWithoutRouteEgoSouth2EastOtherEast2SouthD0Ev
FNDA:0,_ZN60RssSceneCreationTestWithoutRouteEgoSouth2EastOtherEast2SouthC2Ev
FNDA:0,_ZN60RssSceneCreationTestWithoutRouteEgoSouth2EastOtherEast2SouthD2Ev
FNDA:0,_ZN71RssSceneCreationTestWithoutRouteEgoSouth2EastOtherEast2South_e0_o0_TestD2Ev
FNDA:0,_ZN71RssSceneCreationTestWithoutRouteEgoSouth2EastOtherEast2South_e0_o0_Test8TestBodyEv
FNDA:0,_ZN71RssSceneCreationTestWithoutRouteEgoSouth2EastOtherEast2South_e0_o0_TestC2Ev
FNDA:0,_ZN71RssSceneCreationTestWithoutRouteEgoSouth2EastOtherEast2South_e0_o0_TestD0Ev
FNDA:0,_ZN71RssSceneCreationTestWithoutRouteEgoSouth2EastOtherEast2South_e2_o0_Test8TestBodyEv
FNDA:0,_ZN71RssSceneCreationTestWithoutRouteEgoSouth2EastOtherEast2South_e2_o0_TestD2Ev
FNDA:0,_ZN71RssSceneCreationTestWithoutRouteEgoSouth2EastOtherEast2South_e2_o0_TestD0Ev
FNDA:0,_ZN71RssSceneCreationTestWithoutRouteEgoSouth2EastOtherEast2South_e2_o0_TestC2Ev
FNDA:0,_ZN71RssSceneCreationTestWithoutRouteEgoSouth2EastOtherEast2South_e0_o4_Test8TestBodyEv
FNDA:0,_ZN71RssSceneCreationTestWithoutRouteEgoSouth2EastOtherEast2South_e0_o4_TestC2Ev
FNDA:0,_ZN71RssSceneCreationTestWithoutRouteEgoSouth2EastOtherEast2South_e0_o4_TestD0Ev
FNDA:0,_ZN71RssSceneCreationTestWithoutRouteEgoSouth2EastOtherEast2South_e0_o4_TestD2Ev
FNDA:0,_Z41__static_initialization_and_destruction_0ii
FNDA:0,_GLOBAL__sub_I__ZN68RssSceneCreationTestWithRouteEgoSouth2EastOtherEast2South_e0_o0_Test10test_info_E
FNF:120
FNH:0
DA:11,0
DA:30,0
DA:32,0
DA:33,0
DA:34,0
DA:37,0
DA:38,0
DA:39,0
DA:41,0
DA:43,0
DA:44,0
DA:45,0
DA:48,0
DA:49,0
DA:50,0
DA:52,0
DA:54,0
DA:55,0
DA:56,0
DA:61,0
DA:62,0
DA:63,0
DA:65,0
DA:67,0
DA:68,0
DA:69,0
DA:72,0
DA:73,0
DA:75,0
DA:77,0
DA:78,0
DA:79,0
DA:82,0
DA:83,0
DA:85,0
DA:87,0
DA:88,0
DA:89,0
DA:92,0
DA:93,0
DA:94,0
DA:96,0
DA:98,0
DA:99,0
DA:100,0
DA:103,0
DA:104,0
DA:105,0
DA:107,0
DA:109,0
DA:110,0
DA:111,0
DA:114,0
DA:115,0
DA:116,0
DA:118,0
DA:120,0
DA:121,0
DA:122,0
DA:126,0
DA:127,0
DA:128,0
DA:130,0
DA:132,0
DA:133,0
DA:134,0
DA:137,0
DA:138,0
DA:140,0
DA:142,0
DA:143,0
DA:144,0
DA:147,0
DA:148,0
DA:149,0
DA:151,0
DA:153,0
DA:154,0
DA:155,0
DA:158,0
DA:159,0
DA:160,0
DA:162,0
DA:164,0
DA:165,0
DA:166,0
DA:169,0
DA:170,0
DA:171,0
DA:173,0
DA:175,0
DA:176,0
DA:177,0
DA:180,0
DA:181,0
DA:183,0
DA:185,0
DA:186,0
DA:187,0
DA:190,0
DA:191,0
DA:193,0
DA:195,0
DA:196,0
DA:197,0
DA:200,0
DA:201,0
DA:203,0
DA:205,0
DA:206,0
DA:207,0
DA:213,0
DA:214,0
DA:215,0
DA:217,0
DA:219,0
DA:220,0
DA:221,0
DA:224,0
DA:225,0
DA:227,0
DA:229,0
DA:230,0
DA:231,0
DA:234,0
DA:235,0
DA:237,0
DA:239,0
DA:240,0
DA:241,0
DA:244,0
DA:245,0
DA:247,0
DA:249,0
DA:250,0
DA:251,0
DA:254,0
DA:255,0
DA:257,0
DA:259,0
DA:260,0
DA:261,0
DA:264,0
DA:265,0
DA:267,0
DA:269,0
DA:270,0
DA:271,0
DA:274,0
DA:275,0
DA:277,0
DA:279,0
DA:280,0
DA:281,0
DA:284,0
DA:285,0
DA:287,0
DA:289,0
DA:290,0
DA:291,0
DA:294,0
DA:295,0
DA:297,0
DA:316,0
DA:318,0
DA:319,0
DA:320,0
DA:324,0
DA:325,0
DA:328,0
DA:332,0
DA:336,0
DA:339,0
DA:340,0
DA:341,0
DA:343,0
DA:345,0
DA:346,0
DA:347,0
DA:351,0
DA:352,0
DA:357,0
DA:360,0
DA:361,0
DA:362,0
DA:364,0
DA:366,0
DA:367,0
DA:368,0
DA:371,0
DA:372,0
LF:191
LH:0
end_of_record
TN:
SF:/home/runner/work/ad-rss-lib/ad-rss-lib/ad_rss_map_integration/impl/include/ad/rss/map/RssObjectData.hpp
FN:34,_ZN2ad3rss3map13RssObjectDataC2Ev
FN:34,_ZN2ad3rss3map13RssObjectDataD2Ev
FNDA:0,_ZN2ad3rss3map13RssObjectDataC2Ev
FNDA:0,_ZN2ad3rss3map13RssObjectDataD2Ev
FNF:2
FNH:0
DA:34,0
LF:1
LH:0
end_of_record
SF:/home/runner/work/ad-rss-lib/ad-rss-lib/ad_rss_map_integration/impl/include/ad/rss/map/RssSceneCreation.hpp
FN:53,_ZN2ad3rss3map16RssSceneCreationD2Ev
FNDA:0,_ZN2ad3rss3map16RssSceneCreationD2Ev
FNF:1
FNH:0
DA:53,0
LF:1
LH:0
end_of_record
SF:/home/runner/work/ad-rss-lib/ad-rss-lib/ad_rss_map_integration/impl/tests/RssSceneCreationTest.hpp
FN:25,_ZN20RssSceneCreationTestC2Ev
FN:25,_ZN20RssSceneCreationTestD0Ev
FN:25,_ZN20RssSceneCreationTestD2Ev
FN:47,_ZN20RssSceneCreationTest23getUnstructuredSettingsEv
FN:58,_ZN20RssSceneCreationTest21getEgoVehicleDynamicsEN2ad7physics5SpeedE
FN:80,_ZN20RssSceneCreationTest24getObjectVehicleDynamicsEN2ad7physics5SpeedE
FN:111,_ZN20RssSceneCreationTest7initMapEv
FN:145,_ZN20RssSceneCreationTest5SetUpEv
FN:153,_ZN20RssSceneCreationTest8TearDownEv
FN:166,_ZN20RssSceneCreationTest19initializeObjectENUERKN2ad3map5point8ENUPointERKNS2_10ENUHeadingERNS1_5match6ObjectE
FNDA:0,_ZN20RssSceneCreationTestC2Ev
FNDA:0,_ZN20RssSceneCreationTestD0Ev
FNDA:0,_ZN20RssSceneCreationTestD2Ev
FNDA:0,_ZN20RssSceneCreationTest23getUnstructuredSettingsEv
FNDA:0,_ZN20RssSceneCreationTest21getEgoVehicleDynamicsEN2ad7physics5SpeedE
FNDA:0,_ZN20RssSceneCreationTest24getObjectVehicleDynamicsEN2ad7physics5SpeedE
FNDA:0,_ZN20RssSceneCreationTest7initMapEv
FNDA:0,_ZN20RssSceneCreationTest5SetUpEv
FNDA:0,_ZN20RssSceneCreationTest8TearDownEv
FNDA:0,_ZN20RssSceneCreationTest19initializeObjectENUERKN2ad3map5point8ENUPointERKNS2_10ENUHeadingERNS1_5match6ObjectE
FNF:10
FNH:0
DA:25,0
DA:47,0
DA:49,0
DA:50,0
DA:51,0
DA:52,0
DA:53,0
DA:54,0
DA:55,0
DA:58,0
DA:61,0
DA:62,0
DA:63,0
DA:65,0
DA:66,0
DA:67,0
DA:68,0
DA:70,0
DA:72,0
DA:73,0
DA:75,0
DA:77,0
DA:80,0
DA:83,0
DA:84,0
DA:85,0
DA:87,0
DA:88,0
DA:89,0
DA:90,0
DA:92,0
DA:94,0
DA:95,0
DA:97,0
DA:99,0
DA:111,0
DA:115,0
DA:116,0
DA:118,0
DA:119,0
DA:123,0
DA:124,0
DA:127,0
DA:129,0
DA:130,0
DA:132,0
DA:136,0
DA:137,0
DA:139,0
DA:145,0
DA:149,0
DA:150,0
DA:151,0
DA:153,0
DA:155,0
DA:166,0
DA:170,0
DA:171,0
DA:172,0
DA:173,0
DA:174,0
DA:175,0
DA:177,0
DA:179,0
DA:181,0
DA:183,0
LF:66
LH:0
end_of_record
SF:/home/runner/work/ad-rss-lib/ad-rss-lib/ad_rss_map_integration/impl/tests/RssSceneCreationTestTown04.cpp
FN:11,_ZN26RssSceneCreationTestTown04D0Ev
FN:11,_ZN26RssSceneCreationTestTown04C2Ev
FN:11,_ZN26RssSceneCreationTestTown04D2Ev
FN:13,_ZN26RssSceneCreationTestTown0411getTestModeEv
FN:18,_ZN26RssSceneCreationTestTown0412getMapToLoadEv
FN:23,_ZN26RssSceneCreationTestTown0420initializeEgoVehicleEv
FN:52,_ZN64RssSceneCreationTestTown04_testVehicleBehindConnectingRoute_TestD2Ev
FN:52,_ZN64RssSceneCreationTestTown04_testVehicleBehindConnectingRoute_TestC2Ev
FN:52,_ZN64RssSceneCreationTestTown04_testVehicleBehindConnectingRoute_TestD0Ev
FN:52,_ZN64RssSceneCreationTestTown04_testVehicleBehindConnectingRoute_Test8TestBodyEv
FN:123,_GLOBAL__sub_I__ZN64RssSceneCreationTestTown04_testVehicleBehindConnectingRoute_Test10test_info_E
FN:123,_Z41__static_initialization_and_destruction_0ii
FNDA:0,_ZN26RssSceneCreationTestTown04D0Ev
FNDA:0,_ZN26RssSceneCreationTestTown04C2Ev
FNDA:0,_ZN26RssSceneCreationTestTown04D2Ev
FNDA:0,_ZN26RssSceneCreationTestTown0411getTestModeEv
FNDA:0,_ZN26RssSceneCreationTestTown0412getMapToLoadEv
FNDA:0,_ZN26RssSceneCreationTestTown0420initializeEgoVehicleEv
FNDA:0,_ZN64RssSceneCreationTestTown04_testVehicleBehindConnectingRoute_TestD2Ev
FNDA:0,_ZN64RssSceneCreationTestTown04_testVehicleBehindConnectingRoute_TestC2Ev
FNDA:0,_ZN64RssSceneCreationTestTown04_testVehicleBehindConnectingRoute_TestD0Ev
FNDA:0,_ZN64RssSceneCreationTestTown04_testVehicleBehindConnectingRoute_Test8TestBodyEv
FNDA:0,_GLOBAL__sub_I__ZN64RssSceneCreationTestTown04_testVehicleBehindConnectingRoute_Test10test_info_E
FNDA:0,_Z41__static_initialization_and_destruction_0ii
FNF:12
FNH:0
DA:11,0
DA:13,0
DA:15,0
DA:18,0
DA:20,0
DA:23,0
DA:25,0
DA:26,0
DA:27,0
DA:28,0
DA:30,0
DA:32,0
DA:33,0
DA:34,0
DA:36,0
DA:37,0
DA:38,0
DA:39,0
DA:40,0
DA:42,0
DA:44,0
DA:46,0
DA:47,0
DA:52,0
DA:54,0
DA:56,0
DA:57,0
DA:59,0
DA:60,0
DA:61,0
DA:62,0
DA:63,0
DA:65,0
DA:66,0
DA:67,0
DA:68,0
DA:70,0
DA:72,0
DA:73,0
DA:74,0
DA:75,0
DA:76,0
DA:77,0
DA:78,0
DA:79,0
DA:81,0
DA:82,0
DA:83,0
DA:84,0
DA:85,0
DA:86,0
DA:87,0
DA:88,0
DA:90,0
DA:96,0
DA:98,0
DA:99,0
DA:101,0
DA:102,0
DA:104,0
DA:105,0
DA:106,0
DA:107,0
DA:110,0
DA:111,0
DA:112,0
DA:113,0
DA:115,0
DA:116,0
DA:117,0
DA:118,0
DA:119,0
DA:120,0
DA:121,0
DA:122,0
DA:123,0
LF:76
LH:0
end_of_record
TN:
SF:/home/runner/work/ad-rss-lib/ad-rss-lib/ad_rss_map_integration/impl/include/ad/rss/map/RssObjectData.hpp
FN:34,_ZN2ad3rss3map13RssObjectDataC2Ev
FN:34,_ZN2ad3rss3map13RssObjectDataD2Ev
FNDA:0,_ZN2ad3rss3map13RssObjectDataC2Ev
FNDA:0,_ZN2ad3rss3map13RssObjectDataD2Ev
FNF:2
FNH:0
DA:34,0
LF:1
LH:0
end_of_record
SF:/home/runner/work/ad-rss-lib/ad-rss-lib/ad_rss_map_integration/impl/include/ad/rss/map/RssSceneCreation.hpp
FN:53,_ZN2ad3rss3map16RssSceneCreationD2Ev
FNDA:0,_ZN2ad3rss3map16RssSceneCreationD2Ev
FNF:1
FNH:0
DA:53,0
LF:1
LH:0
end_of_record
SF:/home/runner/work/ad-rss-lib/ad-rss-lib/ad_rss_map_integration/impl/tests/RssSceneCreationTest.hpp
FN:25,_ZN20RssSceneCreationTestD2Ev
FN:25,_ZN20RssSceneCreationTestC2Ev
FN:25,_ZN20RssSceneCreationTestD0Ev
FN:47,_ZN20RssSceneCreationTest23getUnstructuredSettingsEv
FN:58,_ZN20RssSceneCreationTest21getEgoVehicleDynamicsEN2ad7physics5SpeedE
FN:80,_ZN20RssSceneCreationTest24getObjectVehicleDynamicsEN2ad7physics5SpeedE
FN:111,_ZN20RssSceneCreationTest7initMapEv
FN:145,_ZN20RssSceneCreationTest5SetUpEv
FN:153,_ZN20RssSceneCreationTest8TearDownEv
FN:157,_ZN20RssSceneCreationTest19initializeObjectGeoERKSt5tupleIJN2ad3map5point9LongitudeENS3_8LatitudeEdEERNS2_5match6ObjectE
FN:166,_ZN20RssSceneCreationTest19initializeObjectENUERKN2ad3map5point8ENUPointERKNS2_10ENUHeadingERNS1_5match6ObjectE
FN:189,_ZN20RssSceneCreationTest17checkSceneResultsERKN2ad3rss5world10WorldModelERKmRKSt6vectorISt5tupleIJNS1_9situation13SituationTypeEmmNS0_7physics5SpeedEEESaISE_EE
FN:206,_ZZN20RssSceneCreationTest17checkSceneResultsERKN2ad3rss5world10WorldModelERKmRKSt6vectorISt5tupleIJNS1_9situation13SituationTypeEmmNS0_7physics5SpeedEEESaISE_EEENUlRKSE_E_D2Ev
FN:206,_ZZN20RssSceneCreationTest17checkSceneResultsERKN2ad3rss5world10WorldModelERKmRKSt6vectorISt5tupleIJNS1_9situation13SituationTypeEmmNS0_7physics5SpeedEEESaISE_EEENUlRKSE_E_C2ERKSL_
FN:206,_ZZN20RssSceneCreationTest17checkSceneResultsERKN2ad3rss5world10WorldModelERKmRKSt6vectorISt5tupleIJNS1_9situation13SituationTypeEmmNS0_7physics5SpeedEEESaISE_EEENKUlRKSE_E_clESK_
FN:227,_ZN20RssSceneCreationTest15shortenEgoRouteERKSt5tupleIJN2ad3map5point9LongitudeENS3_8LatitudeEdEE
FN:240,_ZN20RssSceneCreationTest16performSceneTestERKSt5tupleIJN2ad3map5point9LongitudeENS3_8LatitudeEdEES8_RKSt6vectorIS0_IJNS1_3rss9situation13SituationTypeEmmNS1_7physics5SpeedEEESaISF_EE
FN:303,_ZN26RssSceneCreationTestTown01D2Ev
FN:303,_ZN26RssSceneCreationTestTown01D0Ev
FN:303,_ZN26RssSceneCreationTestTown01C2Ev
FN:305,_ZN26RssSceneCreationTestTown0112getMapToLoadEv
FN:310,_ZN26RssSceneCreationTestTown0120initializeEgoVehicleEv
FN:351,_ZN26RssSceneCreationTestTown0121locationSouthIncomingEv
FN:358,_ZN26RssSceneCreationTestTown0121locationSouthEnteringEv
FN:364,_ZN26RssSceneCreationTestTown0118locationSouth2EastEv
FN:370,_ZN26RssSceneCreationTestTown0119locationEastExitingEv
FN:376,_ZN26RssSceneCreationTestTown0120locationEastOutgoingEv
FN:421,_ZN26RssSceneCreationTestTown0121locationNorthIncomingEv
FN:427,_ZN26RssSceneCreationTestTown0121locationNorthEnteringEv
FN:433,_ZN26RssSceneCreationTestTown0118locationNorth2EastEv
FN:466,_ZN29RssSceneCreationTestWithRouteD2Ev
FN:466,_ZN29RssSceneCreationTestWithRouteD0Ev
FN:466,_ZN29RssSceneCreationTestWithRouteC2Ev
FN:468,_ZN29RssSceneCreationTestWithRoute11getTestModeEv
FN:474,_ZN32RssSceneCreationTestWithoutRouteC2Ev
FN:474,_ZN32RssSceneCreationTestWithoutRouteD2Ev
FN:474,_ZN32RssSceneCreationTestWithoutRouteD0Ev
FN:476,_ZN32RssSceneCreationTestWithoutRoute11getTestModeEv
FNDA:0,_ZN20RssSceneCreationTestD2Ev
FNDA:0,_ZN20RssSceneCreationTestC2Ev
FNDA:0,_ZN20RssSceneCreationTestD0Ev
FNDA:0,_ZN20RssSceneCreationTest23getUnstructuredSettingsEv
FNDA:0,_ZN20RssSceneCreationTest21getEgoVehicleDynamicsEN2ad7physics5SpeedE
FNDA:0,_ZN20RssSceneCreationTest24getObjectVehicleDynamicsEN2ad7physics5SpeedE
FNDA:0,_ZN20RssSceneCreationTest7initMapEv
FNDA:0,_ZN20RssSceneCreationTest5SetUpEv
FNDA:0,_ZN20RssSceneCreationTest8TearDownEv
FNDA:0,_ZN20RssSceneCreationTest19initializeObjectGeoERKSt5tupleIJN2ad3map5point9LongitudeENS3_8LatitudeEdEERNS2_5match6ObjectE
FNDA:0,_ZN20RssSceneCreationTest19initializeObjectENUERKN2ad3map5point8ENUPointERKNS2_10ENUHeadingERNS1_5match6ObjectE
FNDA:0,_ZN20RssSceneCreationTest17checkSceneResultsERKN2ad3rss5world10WorldModelERKmRKSt6vectorISt5tupleIJNS1_9situation13SituationTypeEmmNS0_7physics5SpeedEEESaISE_EE
FNDA:0,_ZZN20RssSceneCreationTest17checkSceneResultsERKN2ad3rss5world10WorldModelERKmRKSt6vectorISt5tupleIJNS1_9situation13SituationTypeEmmNS0_7physics5SpeedEEESaISE_EEENUlRKSE_E_D2Ev
FNDA:0,_ZZN20RssSceneCreationTest17checkSceneResultsERKN2ad3rss5world10WorldModelERKmRKSt6vectorISt5tupleIJNS1_9situation13SituationTypeEmmNS0_7physics5SpeedEEESaISE_EEENUlRKSE_E_C2ERKSL_
FNDA:0,_ZZN20RssSceneCreationTest17checkSceneResultsERKN2ad3rss5world10WorldModelERKmRKSt6vectorISt5tupleIJNS1_9situation13SituationTypeEmmNS0_7physics5SpeedEEESaISE_EEENKUlRKSE_E_clESK_
FNDA:0,_ZN20RssSceneCreationTest15shortenEgoRouteERKSt5tupleIJN2ad3map5point9LongitudeENS3_8LatitudeEdEE
FNDA:0,_ZN20RssSceneCreationTest16performSceneTestERKSt5tupleIJN2ad3map5point9LongitudeENS3_8LatitudeEdEES8_RKSt6vectorIS0_IJNS1_3rss9situation13SituationTypeEmmNS1_7physics5SpeedEEESaISF_EE
FNDA:0,_ZN26RssSceneCreationTestTown01D2Ev
FNDA:0,_ZN26RssSceneCreationTestTown01D0Ev
FNDA:0,_ZN26RssSceneCreationTestTown01C2Ev
FNDA:0,_ZN26RssSceneCreationTestTown0112getMapToLoadEv
FNDA:0,_ZN26RssSceneCreationTestTown0120initializeEgoVehicleEv
FNDA:0,_ZN26RssSceneCreationTestTown0121locationSouthIncomingEv
FNDA:0,_ZN26RssSceneCreationTestTown0121locationSouthEnteringEv
FNDA:0,_ZN26RssSceneCreationTestTown0118locationSouth2EastEv
FNDA:0,_ZN26RssSceneCreationTestTown0119locationEastExitingEv
FNDA:0,_ZN26RssSceneCreationTestTown0120locationEastOutgoingEv
FNDA:0,_ZN26RssSceneCreationTestTown0121locationNorthIncomingEv
FNDA:0,_ZN26RssSceneCreationTestTown0121locationNorthEnteringEv
FNDA:0,_ZN26RssSceneCreationTestTown0118locationNorth2EastEv
FNDA:0,_ZN29RssSceneCreationTestWithRouteD2Ev
FNDA:0,_ZN29RssSceneCreationTestWithRouteD0Ev
FNDA:0,_ZN29RssSceneCreationTestWithRouteC2Ev
FNDA:0,_ZN29RssSceneCreationTestWithRoute11getTestModeEv
FNDA:0,_ZN32RssSceneCreationTestWithoutRouteC2Ev
FNDA:0,_ZN32RssSceneCreationTestWithoutRouteD2Ev
FNDA:0,_ZN32RssSceneCreationTestWithoutRouteD0Ev
FNDA:0,_ZN32RssSceneCreationTestWithoutRoute11getTestModeEv
FNF:38
FNH:0
DA:25,0
DA:47,0
DA:49,0
DA:50,0
DA:51,0
DA:52,0
DA:53,0
DA:54,0
DA:55,0
DA:58,0
DA:61,0
DA:62,0
DA:63,0
DA:65,0
DA:66,0
DA:67,0
DA:68,0
DA:70,0
DA:72,0
DA:73,0
DA:75,0
DA:77,0
DA:80,0
DA:83,0
DA:84,0
DA:85,0
DA:87,0
DA:88,0
DA:89,0
DA:90,0
DA:92,0
DA:94,0
DA:95,0
DA:97,0
DA:99,0
DA:111,0
DA:115,0
DA:116,0
DA:118,0
DA:119,0
DA:123,0
DA:124,0
DA:127,0
DA:129,0
DA:130,0
DA:132,0
DA:136,0
DA:137,0
DA:139,0
DA:145,0
DA:149,0
DA:150,0
DA:151,0
DA:153,0
DA:155,0
DA:157,0
DA:159,0
DA:160,0
DA:161,0
DA:162,0
DA:163,0
DA:164,0
DA:166,0
DA:170,0
DA:171,0
DA:172,0
DA:173,0
DA:174,0
DA:175,0
DA:177,0
DA:179,0
DA:181,0
DA:183,0
DA:189,0
DA:193,0
DA:194,0
DA:196,0
DA:197,0
DA:199,0
DA:200,0
DA:201,0
DA:202,0
DA:206,0
DA:207,0
DA:208,0
DA:209,0
DA:210,0
DA:211,0
DA:212,0
DA:214,0
DA:218,0
DA:221,0
DA:222,0
DA:223,0
DA:224,0
DA:227,0
DA:229,0
DA:231,0
DA:233,0
DA:235,0
DA:236,0
DA:240,0
DA:244,0
DA:246,0
DA:247,0
DA:249,0
DA:250,0
DA:251,0
DA:252,0
DA:254,0
DA:256,0
DA:258,0
DA:259,0
DA:260,0
DA:262,0
DA:263,0
DA:266,0
DA:267,0
DA:268,0
DA:269,0
DA:270,0
DA:271,0
DA:272,0
DA:273,0
DA:275,0
DA:276,0
DA:277,0
DA:278,0
DA:279,0
DA:280,0
DA:281,0
DA:282,0
DA:284,0
DA:289,0
DA:291,0
DA:292,0
DA:293,0
DA:303,0
DA:305,0
DA:307,0
DA:310,0
DA:314,0
DA:316,0
DA:318,0
DA:319,0
DA:320,0
DA:325,0
DA:327,0
DA:329,0
DA:331,0
DA:332,0
DA:351,0
DA:355,0
DA:358,0
DA:361,0
DA:364,0
DA:367,0
DA:370,0
DA:373,0
DA:376,0
DA:380,0
DA:421,0
DA:424,0
DA:427,0
DA:430,0
DA:433,0
DA:437,0
DA:466,0
DA:468,0
DA:470,0
DA:474,0
DA:476,0
DA:478,0
LF:173
LH:0
end_of_record
SF:/home/runner/work/ad-rss-lib/ad-rss-lib/ad_rss_map_integration/impl/tests/RssSceneCreationTestEgoSouth2EastOtherNorth2East.cpp
FN:11,_ZN57RssSceneCreationTestWithRouteEgoSouth2EastOtherNorth2EastC2Ev
FN:11,_ZN57RssSceneCreationTestWithRouteEgoSouth2EastOtherNorth2EastD0Ev
FN:11,_ZN57RssSceneCreationTestWithRouteEgoSouth2EastOtherNorth2EastD2Ev
FN:30,_ZN68RssSceneCreationTestWithRouteEgoSouth2EastOtherNorth2East_e0_o0_Test8TestBodyEv
FN:30,_ZN68RssSceneCreationTestWithRouteEgoSouth2EastOtherNorth2East_e0_o0_TestD2Ev
FN:30,_ZN68RssSceneCreationTestWithRouteEgoSouth2EastOtherNorth2East_e0_o0_TestD0Ev
FN:30,_ZN68RssSceneCreationTestWithRouteEgoSouth2EastOtherNorth2East_e0_o0_TestC2Ev
FN:43,_ZN68RssSceneCreationTestWithRouteEgoSouth2EastOtherNorth2East_e0_o1_Test8TestBodyEv
FN:43,_ZN68RssSceneCreationTestWithRouteEgoSouth2EastOtherNorth2East_e0_o1_TestD2Ev
FN:43,_ZN68RssSceneCreationTestWithRouteEgoSouth2EastOtherNorth2East_e0_o1_TestC2Ev
FN:43,_ZN68RssSceneCreationTestWithRouteEgoSouth2EastOtherNorth2East_e0_o1_TestD0Ev
FN:56,_ZN68RssSceneCreationTestWithRouteEgoSouth2EastOtherNorth2East_e0_o2_TestD2Ev
FN:56,_ZN68RssSceneCreationTestWithRouteEgoSouth2EastOtherNorth2East_e0_o2_Test8TestBodyEv
FN:56,_ZN68RssSceneCreationTestWithRouteEgoSouth2EastOtherNorth2East_e0_o2_TestD0Ev
FN:56,_ZN68RssSceneCreationTestWithRouteEgoSouth2EastOtherNorth2East_e0_o2_TestC2Ev
FN:69,_ZN68RssSceneCreationTestWithRouteEgoSouth2EastOtherNorth2East_e0_o3_TestC2Ev
FN:69,_ZN68RssSceneCreationTestWithRouteEgoSouth2EastOtherNorth2East_e0_o3_Test8TestBodyEv
FN:69,_ZN68RssSceneCreationTestWithRouteEgoSouth2EastOtherNorth2East_e0_o3_TestD0Ev
FN:69,_ZN68RssSceneCreationTestWithRouteEgoSouth2EastOtherNorth2East_e0_o3_TestD2Ev
FN:77,_ZN68RssSceneCreationTestWithRouteEgoSouth2EastOtherNorth2East_e0_o4_TestC2Ev
FN:77,_ZN68RssSceneCreationTestWithRouteEgoSouth2EastOtherNorth2East_e0_o4_TestD0Ev
FN:77,_ZN68RssSceneCreationTestWithRouteEgoSouth2EastOtherNorth2East_e0_o4_Test8TestBodyEv
FN:77,_ZN68RssSceneCreationTestWithRouteEgoSouth2EastOtherNorth2East_e0_o4_TestD2Ev
FN:85,_ZN68RssSceneCreationTestWithRouteEgoSouth2EastOtherNorth2East_e1_o0_TestC2Ev
FN:85,_ZN68RssSceneCreationTestWithRouteEgoSouth2EastOtherNorth2East_e1_o0_Test8TestBodyEv
FN:85,_ZN68RssSceneCreationTestWithRouteEgoSouth2EastOtherNorth2East_e1_o0_TestD0Ev
FN:85,_ZN68RssSceneCreationTestWithRouteEgoSouth2EastOtherNorth2East_e1_o0_TestD2Ev
FN:98,_ZN68RssSceneCreationTestWithRouteEgoSouth2EastOtherNorth2East_e1_o1_TestD2Ev
FN:98,_ZN68RssSceneCreationTestWithRouteEgoSouth2EastOtherNorth2East_e1_o1_TestC2Ev
FN:98,_ZN68RssSceneCreationTestWithRouteEgoSouth2EastOtherNorth2East_e1_o1_TestD0Ev
FN:98,_ZN68RssSceneCreationTestWithRouteEgoSouth2EastOtherNorth2East_e1_o1_Test8TestBodyEv
FN:111,_ZN68RssSceneCreationTestWithRouteEgoSouth2EastOtherNorth2East_e1_o2_TestC2Ev
FN:111,_ZN68RssSceneCreationTestWithRouteEgoSouth2EastOtherNorth2East_e1_o2_Test8TestBodyEv
FN:111,_ZN68RssSceneCreationTestWithRouteEgoSouth2EastOtherNorth2East_e1_o2_TestD2Ev
FN:111,_ZN68RssSceneCreationTestWithRouteEgoSouth2EastOtherNorth2East_e1_o2_TestD0Ev
FN:124,_ZN68RssSceneCreationTestWithRouteEgoSouth2EastOtherNorth2East_e1_o3_TestC2Ev
FN:124,_ZN68RssSceneCreationTestWithRouteEgoSouth2EastOtherNorth2East_e1_o3_Test8TestBodyEv
FN:124,_ZN68RssSceneCreationTestWithRouteEgoSouth2EastOtherNorth2East_e1_o3_TestD0Ev
FN:124,_ZN68RssSceneCreationTestWithRouteEgoSouth2EastOtherNorth2East_e1_o3_TestD2Ev
FN:132,_ZN68RssSceneCreationTestWithRouteEgoSouth2EastOtherNorth2East_e1_o4_TestC2Ev
FN:132,_ZN68RssSceneCreationTestWithRouteEgoSouth2EastOtherNorth2East_e1_o4_TestD0Ev
FN:132,_ZN68RssSceneCreationTestWithRouteEgoSouth2EastOtherNorth2East_e1_o4_Test8TestBodyEv
FN:132,_ZN68RssSceneCreationTestWithRouteEgoSouth2EastOtherNorth2East_e1_o4_TestD2Ev
FN:140,_ZN68RssSceneCreationTestWithRouteEgoSouth2EastOtherNorth2East_e2_o0_TestC2Ev
FN:140,_ZN68RssSceneCreationTestWithRouteEgoSouth2EastOtherNorth2East_e2_o0_Test8TestBodyEv
FN:140,_ZN68RssSceneCreationTestWithRouteEgoSouth2EastOtherNorth2East_e2_o0_TestD2Ev
FN:140,_ZN68RssSceneCreationTestWithRouteEgoSouth2EastOtherNorth2East_e2_o0_TestD0Ev
FN:153,_ZN68RssSceneCreationTestWithRouteEgoSouth2EastOtherNorth2East_e2_o1_Test8TestBodyEv
FN:153,_ZN68RssSceneCreationTestWithRouteEgoSouth2EastOtherNorth2East_e2_o1_TestC2Ev
FN:153,_ZN68RssSceneCreationTestWithRouteEgoSouth2EastOtherNorth2East_e2_o1_TestD0Ev
FN:153,_ZN68RssSceneCreationTestWithRouteEgoSouth2EastOtherNorth2East_e2_o1_TestD2Ev
FN:166,_ZN68RssSceneCreationTestWithRouteEgoSouth2EastOtherNorth2East_e2_o2_Test8TestBodyEv
FN:166,_ZN68RssSceneCreationTestWithRouteEgoSouth2EastOtherNorth2East_e2_o2_TestD0Ev
FN:166,_ZN68RssSceneCreationTestWithRouteEgoSouth2EastOtherNorth2East_e2_o2_TestC2Ev
FN:166,_ZN68RssSceneCreationTestWithRouteEgoSouth2EastOtherNorth2East_e2_o2_TestD2Ev
FN:179,_ZN68RssSceneCreationTestWithRouteEgoSouth2EastOtherNorth2East_e2_o3_Test8TestBodyEv
FN:179,_ZN68RssSceneCreationTestWithRouteEgoSouth2EastOtherNorth2East_e2_o3_TestD2Ev
FN:179,_ZN68RssSceneCreationTestWithRouteEgoSouth2EastOtherNorth2East_e2_o3_TestD0Ev
FN:179,_ZN68RssSceneCreationTestWithRouteEgoSouth2EastOtherNorth2East_e2_o3_TestC2Ev
FN:187,_ZN68RssSceneCreationTestWithRouteEgoSouth2EastOtherNorth2East_e2_o4_TestD2Ev
FN:187,_ZN68RssSceneCreationTestWithRouteEgoSouth2EastOtherNorth2East_e2_o4_TestD0Ev
FN:187,_ZN68RssSceneCreationTestWithRouteEgoSouth2EastOtherNorth2East_e2_o4_Test8TestBodyEv
FN:187,_ZN68RssSceneCreationTestWithRouteEgoSouth2EastOtherNorth2East_e2_o4_TestC2Ev
FN:195,_ZN68RssSceneCreationTestWithRouteEgoSouth2EastOtherNorth2East_e3_o0_TestD0Ev
FN:195,_ZN68RssSceneCreationTestWithRouteEgoSouth2EastOtherNorth2East_e3_o0_TestD2Ev
FN:195,_ZN68RssSceneCreationTestWithRouteEgoSouth2EastOtherNorth2East_e3_o0_TestC2Ev
FN:195,_ZN68RssSceneCreationTestWithRouteEgoSouth2EastOtherNorth2East_e3_o0_Test8TestBodyEv
FN:205,_ZN68RssSceneCreationTestWithRouteEgoSouth2EastOtherNorth2East_e3_o1_TestC2Ev
FN:205,_ZN68RssSceneCreationTestWithRouteEgoSouth2EastOtherNorth2East_e3_o1_Test8TestBodyEv
FN:205,_ZN68RssSceneCreationTestWithRouteEgoSouth2EastOtherNorth2East_e3_o1_TestD2Ev
FN:205,_ZN68RssSceneCreationTestWithRouteEgoSouth2EastOtherNorth2East_e3_o1_TestD0Ev
FN:215,_ZN68RssSceneCreationTestWithRouteEgoSouth2EastOtherNorth2East_e3_o2_TestD2Ev
FN:215,_ZN68RssSceneCreationTestWithRouteEgoSouth2EastOtherNorth2East_e3_o2_TestC2Ev
FN:215,_ZN68RssSceneCreationTestWithRouteEgoSouth2EastOtherNorth2East_e3_o2_Test8TestBodyEv
FN:215,_ZN68RssSceneCreationTestWithRouteEgoSouth2EastOtherNorth2East_e3_o2_TestD0Ev
FN:224,_ZN68RssSceneCreationTestWithRouteEgoSouth2EastOtherNorth2East_e3_o3_TestC2Ev
FN:224,_ZN68RssSceneCreationTestWithRouteEgoSouth2EastOtherNorth2East_e3_o3_Test8TestBodyEv
FN:224,_ZN68RssSceneCreationTestWithRouteEgoSouth2EastOtherNorth2East_e3_o3_TestD2Ev
FN:224,_ZN68RssSceneCreationTestWithRouteEgoSouth2EastOtherNorth2East_e3_o3_TestD0Ev
FN:232,_ZN68RssSceneCreationTestWithRouteEgoSouth2EastOtherNorth2East_e3_o4_TestC2Ev
FN:232,_ZN68RssSceneCreationTestWithRouteEgoSouth2EastOtherNorth2East_e3_o4_Test8TestBodyEv
FN:232,_ZN68RssSceneCreationTestWithRouteEgoSouth2EastOtherNorth2East_e3_o4_TestD0Ev
FN:232,_ZN68RssSceneCreationTestWithRouteEgoSouth2EastOtherNorth2East_e3_o4_TestD2Ev
FN:240,_ZN68RssSceneCreationTestWithRouteEgoSouth2EastOtherNorth2East_e4_o0_Test8TestBodyEv
FN:240,_ZN68RssSceneCreationTestWithRouteEgoSouth2EastOtherNorth2East_e4_o0_TestD0Ev
FN:240,_ZN68RssSceneCreationTestWithRouteEgoSouth2EastOtherNorth2East_e4_o0_TestC2Ev
FN:240,_ZN68RssSceneCreationTestWithRouteEgoSouth2EastOtherNorth2East_e4_o0_TestD2Ev
FN:249,_ZN68RssSceneCreationTestWithRouteEgoSouth2EastOtherNorth2East_e4_o1_TestD2Ev
FN:249,_ZN68RssSceneCreationTestWithRouteEgoSouth2EastOtherNorth2East_e4_o1_TestD0Ev
FN:249,_ZN68RssSceneCreationTestWithRouteEgoSouth2EastOtherNorth2East_e4_o1_Test8TestBodyEv
FN:249,_ZN68RssSceneCreationTestWithRouteEgoSouth2EastOtherNorth2East_e4_o1_TestC2Ev
FN:259,_ZN68RssSceneCreationTestWithRouteEgoSouth2EastOtherNorth2East_e4_o2_TestD0Ev
FN:259,_ZN68RssSceneCreationTestWithRouteEgoSouth2EastOtherNorth2East_e4_o2_TestD2Ev
FN:259,_ZN68RssSceneCreationTestWithRouteEgoSouth2EastOtherNorth2East_e4_o2_TestC2Ev
FN:259,_ZN68RssSceneCreationTestWithRouteEgoSouth2EastOtherNorth2East_e4_o2_Test8TestBodyEv
FN:268,_ZN68RssSceneCreationTestWithRouteEgoSouth2EastOtherNorth2East_e4_o3_Test8TestBodyEv
FN:268,_ZN68RssSceneCreationTestWithRouteEgoSouth2EastOtherNorth2East_e4_o3_TestC2Ev
FN:268,_ZN68RssSceneCreationTestWithRouteEgoSouth2EastOtherNorth2East_e4_o3_TestD2Ev
FN:268,_ZN68RssSceneCreationTestWithRouteEgoSouth2EastOtherNorth2East_e4_o3_TestD0Ev
FN:277,_ZN68RssSceneCreationTestWithRouteEgoSouth2EastOtherNorth2East_e4_o4_Test8TestBodyEv
FN:277,_ZN68RssSceneCreationTestWithRouteEgoSouth2EastOtherNorth2East_e4_o4_TestD0Ev
FN:277,_ZN68RssSceneCreationTestWithRouteEgoSouth2EastOtherNorth2East_e4_o4_TestD2Ev
FN:277,_ZN68RssSceneCreationTestWithRouteEgoSouth2EastOtherNorth2East_e4_o4_TestC2Ev
FN:286,_ZN60RssSceneCreationTestWithoutRouteEgoSouth2EastOtherNorth2EastD2Ev
FN:286,_ZN60RssSceneCreationTestWithoutRouteEgoSouth2EastOtherNorth2EastD0Ev
FN:286,_ZN60RssSceneCreationTestWithoutRouteEgoSouth2EastOtherNorth2EastC2Ev
FN:305,_ZN71RssSceneCreationTestWithoutRouteEgoSouth2EastOtherNorth2East_e0_o0_TestD2Ev
FN:305,_ZN71RssSceneCreationTestWithoutRouteEgoSouth2EastOtherNorth2East_e0_o0_TestC2Ev
FN:305,_ZN71RssSceneCreationTestWithoutRouteEgoSouth2EastOtherNorth2East_e0_o0_TestD0Ev
FN:305,_ZN71RssSceneCreationTestWithoutRouteEgoSouth2EastOtherNorth2East_e0_o0_Test8TestBodyEv
FN:324,_ZN71RssSceneCreationTestWithoutRouteEgoSouth2EastOtherNorth2East_e2_o0_TestD0Ev
FN:324,_ZN71RssSceneCreationTestWithoutRouteEgoSouth2EastOtherNorth2East_e2_o0_Test8TestBodyEv
FN:324,_ZN71RssSceneCreationTestWithoutRouteEgoSouth2EastOtherNorth2East_e2_o0_TestD2Ev
FN:324,_ZN71RssSceneCreationTestWithoutRouteEgoSouth2EastOtherNorth2East_e2_o0_TestC2Ev
FN:343,_ZN71RssSceneCreationTestWithoutRouteEgoSouth2EastOtherNorth2East_e0_o4_Test8TestBodyEv
FN:343,_ZN71RssSceneCreationTestWithoutRouteEgoSouth2EastOtherNorth2East_e0_o4_TestD2Ev
FN:343,_ZN71RssSceneCreationTestWithoutRouteEgoSouth2EastOtherNorth2East_e0_o4_TestC2Ev
FN:343,_ZN71RssSceneCreationTestWithoutRouteEgoSouth2EastOtherNorth2East_e0_o4_TestD0Ev
FN:349,_Z41__static_initialization_and_destruction_0ii
FN:349,_GLOBAL__sub_I__ZN68RssSceneCreationTestWithRouteEgoSouth2EastOtherNorth2East_e0_o0_Test10test_info_E
FNDA:0,_ZN57RssSceneCreationTestWithRouteEgoSouth2EastOtherNorth2EastC2Ev
FNDA:0,_ZN57RssSceneCreationTestWithRouteEgoSouth2EastOtherNorth2EastD0Ev
FNDA:0,_ZN57RssSceneCreationTestWithRouteEgoSouth2EastOtherNorth2EastD2Ev
FNDA:0,_ZN68RssSceneCreationTestWithRouteEgoSouth2EastOtherNorth2East_e0_o0_Test8TestBodyEv
FNDA:0,_ZN68RssSceneCreationTestWithRouteEgoSouth2EastOtherNorth2East_e0_o0_TestD2Ev
FNDA:0,_ZN68RssSceneCreationTestWithRouteEgoSouth2EastOtherNorth2East_e0_o0_TestD0Ev
FNDA:0,_ZN68RssSceneCreationTestWithRouteEgoSouth2EastOtherNorth2East_e0_o0_TestC2Ev
FNDA:0,_ZN68RssSceneCreationTestWithRouteEgoSouth2EastOtherNorth2East_e0_o1_Test8TestBodyEv
FNDA:0,_ZN68RssSceneCreationTestWithRouteEgoSouth2EastOtherNorth2East_e0_o1_TestD2Ev
FNDA:0,_ZN68RssSceneCreationTestWithRouteEgoSouth2EastOtherNorth2East_e0_o1_TestC2Ev
FNDA:0,_ZN68RssSceneCreationTestWithRouteEgoSouth2EastOtherNorth2East_e0_o1_TestD0Ev
FNDA:0,_ZN68RssSceneCreationTestWithRouteEgoSouth2EastOtherNorth2East_e0_o2_TestD2Ev
FNDA:0,_ZN68RssSceneCreationTestWithRouteEgoSouth2EastOtherNorth2East_e0_o2_Test8TestBodyEv
FNDA:0,_ZN68RssSceneCreationTestWithRouteEgoSouth2EastOtherNorth2East_e0_o2_TestD0Ev
FNDA:0,_ZN68RssSceneCreationTestWithRouteEgoSouth2EastOtherNorth2East_e0_o2_TestC2Ev
FNDA:0,_ZN68RssSceneCreationTestWithRouteEgoSouth2EastOtherNorth2East_e0_o3_TestC2Ev
FNDA:0,_ZN68RssSceneCreationTestWithRouteEgoSouth2EastOtherNorth2East_e0_o3_Test8TestBodyEv
FNDA:0,_ZN68RssSceneCreationTestWithRouteEgoSouth2EastOtherNorth2East_e0_o3_TestD0Ev
FNDA:0,_ZN68RssSceneCreationTestWithRouteEgoSouth2EastOtherNorth2East_e0_o3_TestD2Ev
FNDA:0,_ZN68RssSceneCreationTestWithRouteEgoSouth2EastOtherNorth2East_e0_o4_TestC2Ev
FNDA:0,_ZN68RssSceneCreationTestWithRouteEgoSouth2EastOtherNorth2East_e0_o4_TestD0Ev
FNDA:0,_ZN68RssSceneCreationTestWithRouteEgoSouth2EastOtherNorth2East_e0_o4_Test8TestBodyEv
FNDA:0,_ZN68RssSceneCreationTestWithRouteEgoSouth2EastOtherNorth2East_e0_o4_TestD2Ev
FNDA:0,_ZN68RssSceneCreationTestWithRouteEgoSouth2EastOtherNorth2East_e1_o0_TestC2Ev
FNDA:0,_ZN68RssSceneCreationTestWithRouteEgoSouth2EastOtherNorth2East_e1_o0_Test8TestBodyEv
FNDA:0,_ZN68RssSceneCreationTestWithRouteEgoSouth2EastOtherNorth2East_e1_o0_TestD0Ev
FNDA:0,_ZN68RssSceneCreationTestWithRouteEgoSouth2EastOtherNorth2East_e1_o0_TestD2Ev
FNDA:0,_ZN68RssSceneCreationTestWithRouteEgoSouth2EastOtherNorth2East_e1_o1_TestD2Ev
FNDA:0,_ZN68RssSceneCreationTestWithRouteEgoSouth2EastOtherNorth2East_e1_o1_TestC2Ev
FNDA:0,_ZN68RssSceneCreationTestWithRouteEgoSouth2EastOtherNorth2East_e1_o1_TestD0Ev
FNDA:0,_ZN68RssSceneCreationTestWithRouteEgoSouth2EastOtherNorth2East_e1_o1_Test8TestBodyEv
FNDA:0,_ZN68RssSceneCreationTestWithRouteEgoSouth2EastOtherNorth2East_e1_o2_TestC2Ev
FNDA:0,_ZN68RssSceneCreationTestWithRouteEgoSouth2EastOtherNorth2East_e1_o2_Test8TestBodyEv
FNDA:0,_ZN68RssSceneCreationTestWithRouteEgoSouth2EastOtherNorth2East_e1_o2_TestD2Ev
FNDA:0,_ZN68RssSceneCreationTestWithRouteEgoSouth2EastOtherNorth2East_e1_o2_TestD0Ev
FNDA:0,_ZN68RssSceneCreationTestWithRouteEgoSouth2EastOtherNorth2East_e1_o3_TestC2Ev
FNDA:0,_ZN68RssSceneCreationTestWithRouteEgoSouth2EastOtherNorth2East_e1_o3_Test8TestBodyEv
FNDA:0,_ZN68RssSceneCreationTestWithRouteEgoSouth2EastOtherNorth2East_e1_o3_TestD0Ev
FNDA:0,_ZN68RssSceneCreationTestWithRouteEgoSouth2EastOtherNorth2East_e1_o3_TestD2Ev
FNDA:0,_ZN68RssSceneCreationTestWithRouteEgoSouth2EastOtherNorth2East_e1_o4_TestC2Ev
FNDA:0,_ZN68RssSceneCreationTestWithRouteEgoSouth2EastOtherNorth2East_e1_o4_TestD0Ev
FNDA:0,_ZN68RssSceneCreationTestWithRouteEgoSouth2EastOtherNorth2East_e1_o4_Test8TestBodyEv
FNDA:0,_ZN68RssSceneCreationTestWithRouteEgoSouth2EastOtherNorth2East_e1_o4_TestD2Ev
FNDA:0,_ZN68RssSceneCreationTestWithRouteEgoSouth2EastOtherNorth2East_e2_o0_TestC2Ev
FNDA:0,_ZN68RssSceneCreationTestWithRouteEgoSouth2EastOtherNorth2East_e2_o0_Test8TestBodyEv
FNDA:0,_ZN68RssSceneCreationTestWithRouteEgoSouth2EastOtherNorth2East_e2_o0_TestD2Ev
FNDA:0,_ZN68RssSceneCreationTestWithRouteEgoSouth2EastOtherNorth2East_e2_o0_TestD0Ev
FNDA:0,_ZN68RssSceneCreationTestWithRouteEgoSouth2EastOtherNorth2East_e2_o1_Test8TestBodyEv
FNDA:0,_ZN68RssSceneCreationTestWithRouteEgoSouth2EastOtherNorth2East_e2_o1_TestC2Ev
FNDA:0,_ZN68RssSceneCreationTestWithRouteEgoSouth2EastOtherNorth2East_e2_o1_TestD0Ev
FNDA:0,_ZN68RssSceneCreationTestWithRouteEgoSouth2EastOtherNorth2East_e2_o1_TestD2Ev
FNDA:0,_ZN68RssSceneCreationTestWithRouteEgoSouth2EastOtherNorth2East_e2_o2_Test8TestBodyEv
FNDA:0,_ZN68RssSceneCreationTestWithRouteEgoSouth2EastOtherNorth2East_e2_o2_TestD0Ev
FNDA:0,_ZN68RssSceneCreationTestWithRouteEgoSouth2EastOtherNorth2East_e2_o2_TestC2Ev
FNDA:0,_ZN68RssSceneCreationTestWithRouteEgoSouth2EastOtherNorth2East_e2_o2_TestD2Ev
FNDA:0,_ZN68RssSceneCreationTestWithRouteEgoSouth2EastOtherNorth2East_e2_o3_Test8TestBodyEv
FNDA:0,_ZN68RssSceneCreationTestWithRouteEgoSouth2EastOtherNorth2East_e2_o3_TestD2Ev
FNDA:0,_ZN68RssSceneCreationTestWithRouteEgoSouth2EastOtherNorth2East_e2_o3_TestD0Ev
FNDA:0,_ZN68RssSceneCreationTestWithRouteEgoSouth2EastOtherNorth2East_e2_o3_TestC2Ev
FNDA:0,_ZN68RssSceneCreationTestWithRouteEgoSouth2EastOtherNorth2East_e2_o4_TestD2Ev
FNDA:0,_ZN68RssSceneCreationTestWithRouteEgoSouth2EastOtherNorth2East_e2_o4_TestD0Ev
FNDA:0,_ZN68RssSceneCreationTestWithRouteEgoSouth2EastOtherNorth2East_e2_o4_Test8TestBodyEv
FNDA:0,_ZN68RssSceneCreationTestWithRouteEgoSouth2EastOtherNorth2East_e2_o4_TestC2Ev
FNDA:0,_ZN68RssSceneCreationTestWithRouteEgoSouth2EastOtherNorth2East_e3_o0_TestD0Ev
FNDA:0,_ZN68RssSceneCreationTestWithRouteEgoSouth2EastOtherNorth2East_e3_o0_TestD2Ev
FNDA:0,_ZN68RssSceneCreationTestWithRouteEgoSouth2EastOtherNorth2East_e3_o0_TestC2Ev
FNDA:0,_ZN68RssSceneCreationTestWithRouteEgoSouth2EastOtherNorth2East_e3_o0_Test8TestBodyEv
FNDA:0,_ZN68RssSceneCreationTestWithRouteEgoSouth2EastOtherNorth2East_e3_o1_TestC2Ev
FNDA:0,_ZN68RssSceneCreationTestWithRouteEgoSouth2EastOtherNorth2East_e3_o1_Test8TestBodyEv
FNDA:0,_ZN68RssSceneCreationTestWithRouteEgoSouth2EastOtherNorth2East_e3_o1_TestD2Ev
FNDA:0,_ZN68RssSceneCreationTestWithRouteEgoSouth2EastOtherNorth2East_e3_o1_TestD0Ev
FNDA:0,_ZN68RssSceneCreationTestWithRouteEgoSouth2EastOtherNorth2East_e3_o2_TestD2Ev
FNDA:0,_ZN68RssSceneCreationTestWithRouteEgoSouth2EastOtherNorth2East_e3_o2_TestC2Ev
FNDA:0,_ZN68RssSceneCreationTestWithRouteEgoSouth2EastOtherNorth2East_e3_o2_Test8TestBodyEv
FNDA:0,_ZN68RssSceneCreationTestWithRouteEgoSouth2EastOtherNorth2East_e3_o2_TestD0Ev
FNDA:0,_ZN68RssSceneCreationTestWithRouteEgoSouth2EastOtherNorth2East_e3_o3_TestC2Ev
FNDA:0,_ZN68RssSceneCreationTestWithRouteEgoSouth2EastOtherNorth2East_e3_o3_Test8TestBodyEv
FNDA:0,_ZN68RssSceneCreationTestWithRouteEgoSouth2EastOtherNorth2East_e3_o3_TestD2Ev
FNDA:0,_ZN68RssSceneCreationTestWithRouteEgoSouth2EastOtherNorth2East_e3_o3_TestD0Ev
FNDA:0,_ZN68RssSceneCreationTestWithRouteEgoSouth2EastOtherNorth2East_e3_o4_TestC2Ev
FNDA:0,_ZN68RssSceneCreationTestWithRouteEgoSouth2EastOtherNorth2East_e3_o4_Test8TestBodyEv
FNDA:0,_ZN68RssSceneCreationTestWithRouteEgoSouth2EastOtherNorth2East_e3_o4_TestD0Ev
FNDA:0,_ZN68RssSceneCreationTestWithRouteEgoSouth2EastOtherNorth2East_e3_o4_TestD2Ev
FNDA:0,_ZN68RssSceneCreationTestWithRouteEgoSouth2EastOtherNorth2East_e4_o0_Test8TestBodyEv
FNDA:0,_ZN68RssSceneCreationTestWithRouteEgoSouth2EastOtherNorth2East_e4_o0_TestD0Ev
FNDA:0,_ZN68RssSceneCreationTestWithRouteEgoSouth2EastOtherNorth2East_e4_o0_TestC2Ev
FNDA:0,_ZN68RssSceneCreationTestWithRouteEgoSouth2EastOtherNorth2East_e4_o0_TestD2Ev
FNDA:0,_ZN68RssSceneCreationTestWithRouteEgoSouth2EastOtherNorth2East_e4_o1_TestD2Ev
FNDA:0,_ZN68RssSceneCreationTestWithRouteEgoSouth2EastOtherNorth2East_e4_o1_TestD0Ev
FNDA:0,_ZN68RssSceneCreationTestWithRouteEgoSouth2EastOtherNorth2East_e4_o1_Test8TestBodyEv
FNDA:0,_ZN68RssSceneCreationTestWithRouteEgoSouth2EastOtherNorth2East_e4_o1_TestC2Ev
FNDA:0,_ZN68RssSceneCreationTestWithRouteEgoSouth2EastOtherNorth2East_e4_o2_TestD0Ev
FNDA:0,_ZN68RssSceneCreationTestWithRouteEgoSouth2EastOtherNorth2East_e4_o2_TestD2Ev
FNDA:0,_ZN68RssSceneCreationTestWithRouteEgoSouth2EastOtherNorth2East_e4_o2_TestC2Ev
FNDA:0,_ZN68RssSceneCreationTestWithRouteEgoSouth2EastOtherNorth2East_e4_o2_Test8TestBodyEv
FNDA:0,_ZN68RssSceneCreationTestWithRouteEgoSouth2EastOtherNorth2East_e4_o3_Test8TestBodyEv
FNDA:0,_ZN68RssSceneCreationTestWithRouteEgoSouth2EastOtherNorth2East_e4_o3_TestC2Ev
FNDA:0,_ZN68RssSceneCreationTestWithRouteEgoSouth2EastOtherNorth2East_e4_o3_TestD2Ev
FNDA:0,_ZN68RssSceneCreationTestWithRouteEgoSouth2EastOtherNorth2East_e4_o3_TestD0Ev
FNDA:0,_ZN68RssSceneCreationTestWithRouteEgoSouth2EastOtherNorth2East_e4_o4_Test8TestBodyEv
FNDA:0,_ZN68RssSceneCreationTestWithRouteEgoSouth2EastOtherNorth2East_e4_o4_TestD0Ev
FNDA:0,_ZN68RssSceneCreationTestWithRouteEgoSouth2EastOtherNorth2East_e4_o4_TestD2Ev
FNDA:0,_ZN68RssSceneCreationTestWithRouteEgoSouth2EastOtherNorth2East_e4_o4_TestC2Ev
FNDA:0,_ZN60RssSceneCreationTestWithoutRouteEgoSouth2EastOtherNorth2EastD2Ev
FNDA:0,_ZN60RssSceneCreationTestWithoutRouteEgoSouth2EastOtherNorth2EastD0Ev
FNDA:0,_ZN60RssSceneCreationTestWithoutRouteEgoSouth2EastOtherNorth2EastC2Ev
FNDA:0,_ZN71RssSceneCreationTestWithoutRouteEgoSouth2EastOtherNorth2East_e0_o0_TestD2Ev
FNDA:0,_ZN71RssSceneCreationTestWithoutRouteEgoSouth2EastOtherNorth2East_e0_o0_TestC2Ev
FNDA:0,_ZN71RssSceneCreationTestWithoutRouteEgoSouth2EastOtherNorth2East_e0_o0_TestD0Ev
FNDA:0,_ZN71RssSceneCreationTestWithoutRouteEgoSouth2EastOtherNorth2East_e0_o0_Test8TestBodyEv
FNDA:0,_ZN71RssSceneCreationTestWithoutRouteEgoSouth2EastOtherNorth2East_e2_o0_TestD0Ev
FNDA:0,_ZN71RssSceneCreationTestWithoutRouteEgoSouth2EastOtherNorth2East_e2_o0_Test8TestBodyEv
FNDA:0,_ZN71RssSceneCreationTestWithoutRouteEgoSouth2EastOtherNorth2East_e2_o0_TestD2Ev
FNDA:0,_ZN71RssSceneCreationTestWithoutRouteEgoSouth2EastOtherNorth2East_e2_o0_TestC2Ev
FNDA:0,_ZN71RssSceneCreationTestWithoutRouteEgoSouth2EastOtherNorth2East_e0_o4_Test8TestBodyEv
FNDA:0,_ZN71RssSceneCreationTestWithoutRouteEgoSouth2EastOtherNorth2East_e0_o4_TestD2Ev
FNDA:0,_ZN71RssSceneCreationTestWithoutRouteEgoSouth2EastOtherNorth2East_e0_o4_TestC2Ev
FNDA:0,_ZN71RssSceneCreationTestWithoutRouteEgoSouth2EastOtherNorth2East_e0_o4_TestD0Ev
FNDA:0,_Z41__static_initialization_and_destruction_0ii
FNDA:0,_GLOBAL__sub_I__ZN68RssSceneCreationTestWithRouteEgoSouth2EastOtherNorth2East_e0_o0_Test10test_info_E
FNF:120
FNH:0
DA:11,0
DA:30,0
DA:32,0
DA:33,0
DA:34,0
DA:37,0
DA:40,0
DA:41,0
DA:43,0
DA:45,0
DA:46,0
DA:47,0
DA:50,0
DA:53,0
DA:54,0
DA:56,0
DA:58,0
DA:59,0
DA:60,0
DA:63,0
DA:66,0
DA:67,0
DA:69,0
DA:71,0
DA:72,0
DA:73,0
DA:74,0
DA:75,0
DA:77,0
DA:79,0
DA:80,0
DA:81,0
DA:82,0
DA:83,0
DA:85,0
DA:87,0
DA:88,0
DA:89,0
DA:92,0
DA:95,0
DA:96,0
DA:98,0
DA:100,0
DA:101,0
DA:102,0
DA:105,0
DA:108,0
DA:109,0
DA:111,0
DA:113,0
DA:114,0
DA:115,0
DA:118,0
DA:121,0
DA:122,0
DA:124,0
DA:126,0
DA:127,0
DA:128,0
DA:129,0
DA:130,0
DA:132,0
DA:134,0
DA:135,0
DA:136,0
DA:137,0
DA:138,0
DA:140,0
DA:142,0
DA:143,0
DA:144,0
DA:147,0
DA:150,0
DA:151,0
DA:153,0
DA:155,0
DA:156,0
DA:157,0
DA:160,0
DA:163,0
DA:164,0
DA:166,0
DA:168,0
DA:169,0
DA:170,0
DA:173,0
DA:176,0
DA:177,0
DA:179,0
DA:181,0
DA:182,0
DA:183,0
DA:184,0
DA:185,0
DA:187,0
DA:189,0
DA:190,0
DA:191,0
DA:192,0
DA:193,0
DA:195,0
DA:197,0
DA:198,0
DA:199,0
DA:202,0
DA:203,0
DA:205,0
DA:207,0
DA:208,0
DA:209,0
DA:212,0
DA:213,0
DA:215,0
DA:217,0
DA:218,0
DA:220,0
DA:221,0
DA:222,0
DA:224,0
DA:226,0
DA:227,0
DA:228,0
DA:229,0
DA:230,0
DA:232,0
DA:234,0
DA:235,0
DA:236,0
DA:237,0
DA:238,0
DA:240,0
DA:242,0
DA:243,0
DA:245,0
DA:246,0
DA:247,0
DA:249,0
DA:251,0
DA:252,0
DA:253,0
DA:256,0
DA:257,0
DA:259,0
DA:261,0
DA:262,0
DA:264,0
DA:265,0
DA:266,0
DA:268,0
DA:270,0
DA:271,0
DA:273,0
DA:274,0
DA:275,0
DA:277,0
DA:279,0
DA:280,0
DA:282,0
DA:283,0
DA:284,0
DA:286,0
DA:305,0
DA:307,0
DA:308,0
DA:309,0
DA:313,0
DA:316,0
DA:318,0
DA:321,0
DA:322,0
DA:324,0
DA:326,0
DA:327,0
DA:328,0
DA:332,0
DA:335,0
DA:337,0
DA:340,0
DA:341,0
DA:343,0
DA:345,0
DA:346,0
DA:347,0
DA:348,0
DA:349,0
LF:185
LH:0
end_of_record
TN:
SF:/home/runner/work/ad-rss-lib/ad-rss-lib/ad_rss_map_integration/impl/include/ad/rss/map/RssObjectData.hpp
FN:34,_ZN2ad3rss3map13RssObjectDataC2Ev
FN:34,_ZN2ad3rss3map13RssObjectDataD2Ev
FNDA:0,_ZN2ad3rss3map13RssObjectDataC2Ev
FNDA:0,_ZN2ad3rss3map13RssObjectDataD2Ev
FNF:2
FNH:0
DA:34,0
LF:1
LH:0
end_of_record
SF:/home/runner/work/ad-rss-lib/ad-rss-lib/ad_rss_map_integration/impl/include/ad/rss/map/RssSceneCreation.hpp
FN:53,_ZN2ad3rss3map16RssSceneCreationD2Ev
FNDA:0,_ZN2ad3rss3map16RssSceneCreationD2Ev
FNF:1
FNH:0
DA:53,0
LF:1
LH:0
end_of_record
SF:/home/runner/work/ad-rss-lib/ad-rss-lib/ad_rss_map_integration/impl/tests/RssSceneCreationTest.hpp
FN:25,_ZN20RssSceneCreationTestC2Ev
FN:25,_ZN20RssSceneCreationTestD2Ev
FN:25,_ZN20RssSceneCreationTestD0Ev
FN:47,_ZN20RssSceneCreationTest23getUnstructuredSettingsEv
FN:58,_ZN20RssSceneCreationTest21getEgoVehicleDynamicsEN2ad7physics5SpeedE
FN:80,_ZN20RssSceneCreationTest24getObjectVehicleDynamicsEN2ad7physics5SpeedE
FN:111,_ZN20RssSceneCreationTest7initMapEv
FN:145,_ZN20RssSceneCreationTest5SetUpEv
FN:153,_ZN20RssSceneCreationTest8TearDownEv
FN:157,_ZN20RssSceneCreationTest19initializeObjectGeoERKSt5tupleIJN2ad3map5point9LongitudeENS3_8LatitudeEdEERNS2_5match6ObjectE
FN:166,_ZN20RssSceneCreationTest19initializeObjectENUERKN2ad3map5point8ENUPointERKNS2_10ENUHeadingERNS1_5match6ObjectE
FN:189,_ZN20RssSceneCreationTest17checkSceneResultsERKN2ad3rss5world10WorldModelERKmRKSt6vectorISt5tupleIJNS1_9situation13SituationTypeEmmNS0_7physics5SpeedEEESaISE_EE
FN:206,_ZZN20RssSceneCreationTest17checkSceneResultsERKN2ad3rss5world10WorldModelERKmRKSt6vectorISt5tupleIJNS1_9situation13SituationTypeEmmNS0_7physics5SpeedEEESaISE_EEENUlRKSE_E_D2Ev
FN:206,_ZZN20RssSceneCreationTest17checkSceneResultsERKN2ad3rss5world10WorldModelERKmRKSt6vectorISt5tupleIJNS1_9situation13SituationTypeEmmNS0_7physics5SpeedEEESaISE_EEENUlRKSE_E_C2ERKSL_
FN:206,_ZZN20RssSceneCreationTest17checkSceneResultsERKN2ad3rss5world10WorldModelERKmRKSt6vectorISt5tupleIJNS1_9situation13SituationTypeEmmNS0_7physics5SpeedEEESaISE_EEENKUlRKSE_E_clESK_
FN:227,_ZN20RssSceneCreationTest15shortenEgoRouteERKSt5tupleIJN2ad3map5point9LongitudeENS3_8LatitudeEdEE
FN:240,_ZN20RssSceneCreationTest16performSceneTestERKSt5tupleIJN2ad3map5point9LongitudeENS3_8LatitudeEdEES8_RKSt6vectorIS0_IJNS1_3rss9situation13SituationTypeEmmNS1_7physics5SpeedEEESaISF_EE
FN:303,_ZN26RssSceneCreationTestTown01D2Ev
FN:303,_ZN26RssSceneCreationTestTown01C2Ev
FN:303,_ZN26RssSceneCreationTestTown01D0Ev
FN:305,_ZN26RssSceneCreationTestTown0112getMapToLoadEv
FN:310,_ZN26RssSceneCreationTestTown0120initializeEgoVehicleEv
FN:351,_ZN26RssSceneCreationTestTown0121locationSouthIncomingEv
FN:358,_ZN26RssSceneCreationTestTown0121locationSouthEnteringEv
FN:364,_ZN26RssSceneCreationTestTown0118locationSouth2EastEv
FN:370,_ZN26RssSceneCreationTestTown0119locationEastExitingEv
FN:376,_ZN26RssSceneCreationTestTown0120locationEastOutgoingEv
FN:403,_ZN26RssSceneCreationTestTown0119locationSouth2NorthEv
FN:409,_ZN26RssSceneCreationTestTown0120locationNorthExitingEv
FN:415,_ZN26RssSceneCreationTestTown0121locationNorthOutgoingEv
FN:466,_ZN29RssSceneCreationTestWithRouteD2Ev
FN:466,_ZN29RssSceneCreationTestWithRouteD0Ev
FN:466,_ZN29RssSceneCreationTestWithRouteC2Ev
FN:468,_ZN29RssSceneCreationTestWithRoute11getTestModeEv
FN:474,_ZN32RssSceneCreationTestWithoutRouteC2Ev
FN:474,_ZN32RssSceneCreationTestWithoutRouteD0Ev
FN:474,_ZN32RssSceneCreationTestWithoutRouteD2Ev
FN:476,_ZN32RssSceneCreationTestWithoutRoute11getTestModeEv
FNDA:0,_ZN20RssSceneCreationTestC2Ev
FNDA:0,_ZN20RssSceneCreationTestD2Ev
FNDA:0,_ZN20RssSceneCreationTestD0Ev
FNDA:0,_ZN20RssSceneCreationTest23getUnstructuredSettingsEv
FNDA:0,_ZN20RssSceneCreationTest21getEgoVehicleDynamicsEN2ad7physics5SpeedE
FNDA:0,_ZN20RssSceneCreationTest24getObjectVehicleDynamicsEN2ad7physics5SpeedE
FNDA:0,_ZN20RssSceneCreationTest7initMapEv
FNDA:0,_ZN20RssSceneCreationTest5SetUpEv
FNDA:0,_ZN20RssSceneCreationTest8TearDownEv
FNDA:0,_ZN20RssSceneCreationTest19initializeObjectGeoERKSt5tupleIJN2ad3map5point9LongitudeENS3_8LatitudeEdEERNS2_5match6ObjectE
FNDA:0,_ZN20RssSceneCreationTest19initializeObjectENUERKN2ad3map5point8ENUPointERKNS2_10ENUHeadingERNS1_5match6ObjectE
FNDA:0,_ZN20RssSceneCreationTest17checkSceneResultsERKN2ad3rss5world10WorldModelERKmRKSt6vectorISt5tupleIJNS1_9situation13SituationTypeEmmNS0_7physics5SpeedEEESaISE_EE
FNDA:0,_ZZN20RssSceneCreationTest17checkSceneResultsERKN2ad3rss5world10WorldModelERKmRKSt6vectorISt5tupleIJNS1_9situation13SituationTypeEmmNS0_7physics5SpeedEEESaISE_EEENUlRKSE_E_D2Ev
FNDA:0,_ZZN20RssSceneCreationTest17checkSceneResultsERKN2ad3rss5world10WorldModelERKmRKSt6vectorISt5tupleIJNS1_9situation13SituationTypeEmmNS0_7physics5SpeedEEESaISE_EEENUlRKSE_E_C2ERKSL_
FNDA:0,_ZZN20RssSceneCreationTest17checkSceneResultsERKN2ad3rss5world10WorldModelERKmRKSt6vectorISt5tupleIJNS1_9situation13SituationTypeEmmNS0_7physics5SpeedEEESaISE_EEENKUlRKSE_E_clESK_
FNDA:0,_ZN20RssSceneCreationTest15shortenEgoRouteERKSt5tupleIJN2ad3map5point9LongitudeENS3_8LatitudeEdEE
FNDA:0,_ZN20RssSceneCreationTest16performSceneTestERKSt5tupleIJN2ad3map5point9LongitudeENS3_8LatitudeEdEES8_RKSt6vectorIS0_IJNS1_3rss9situation13SituationTypeEmmNS1_7physics5SpeedEEESaISF_EE
FNDA:0,_ZN26RssSceneCreationTestTown01D2Ev
FNDA:0,_ZN26RssSceneCreationTestTown01C2Ev
FNDA:0,_ZN26RssSceneCreationTestTown01D0Ev
FNDA:0,_ZN26RssSceneCreationTestTown0112getMapToLoadEv
FNDA:0,_ZN26RssSceneCreationTestTown0120initializeEgoVehicleEv
FNDA:0,_ZN26RssSceneCreationTestTown0121locationSouthIncomingEv
FNDA:0,_ZN26RssSceneCreationTestTown0121locationSouthEnteringEv
FNDA:0,_ZN26RssSceneCreationTestTown0118locationSouth2EastEv
FNDA:0,_ZN26RssSceneCreationTestTown0119locationEastExitingEv
FNDA:0,_ZN26RssSceneCreationTestTown0120locationEastOutgoingEv
FNDA:0,_ZN26RssSceneCreationTestTown0119locationSouth2NorthEv
FNDA:0,_ZN26RssSceneCreationTestTown0120locationNorthExitingEv
FNDA:0,_ZN26RssSceneCreationTestTown0121locationNorthOutgoingEv
FNDA:0,_ZN29RssSceneCreationTestWithRouteD2Ev
FNDA:0,_ZN29RssSceneCreationTestWithRouteD0Ev
FNDA:0,_ZN29RssSceneCreationTestWithRouteC2Ev
FNDA:0,_ZN29RssSceneCreationTestWithRoute11getTestModeEv
FNDA:0,_ZN32RssSceneCreationTestWithoutRouteC2Ev
FNDA:0,_ZN32RssSceneCreationTestWithoutRouteD0Ev
FNDA:0,_ZN32RssSceneCreationTestWithoutRouteD2Ev
FNDA:0,_ZN32RssSceneCreationTestWithoutRoute11getTestModeEv
FNF:38
FNH:0
DA:25,0
DA:47,0
DA:49,0
DA:50,0
DA:51,0
DA:52,0
DA:53,0
DA:54,0
DA:55,0
DA:58,0
DA:61,0
DA:62,0
DA:63,0
DA:65,0
DA:66,0
DA:67,0
DA:68,0
DA:70,0
DA:72,0
DA:73,0
DA:75,0
DA:77,0
DA:80,0
DA:83,0
DA:84,0
DA:85,0
DA:87,0
DA:88,0
DA:89,0
DA:90,0
DA:92,0
DA:94,0
DA:95,0
DA:97,0
DA:99,0
DA:111,0
DA:115,0
DA:116,0
DA:118,0
DA:119,0
DA:123,0
DA:124,0
DA:127,0
DA:129,0
DA:130,0
DA:132,0
DA:136,0
DA:137,0
DA:139,0
DA:145,0
DA:149,0
DA:150,0
DA:151,0
DA:153,0
DA:155,0
DA:157,0
DA:159,0
DA:160,0
DA:161,0
DA:162,0
DA:163,0
DA:164,0
DA:166,0
DA:170,0
DA:171,0
DA:172,0
DA:173,0
DA:174,0
DA:175,0
DA:177,0
DA:179,0
DA:181,0
DA:183,0
DA:189,0
DA:193,0
DA:194,0
DA:196,0
DA:197,0
DA:199,0
DA:200,0
DA:201,0
DA:202,0
DA:206,0
DA:207,0
DA:208,0
DA:209,0
DA:210,0
DA:211,0
DA:212,0
DA:214,0
DA:218,0
DA:221,0
DA:222,0
DA:223,0
DA:224,0
DA:227,0
DA:229,0
DA:231,0
DA:233,0
DA:235,0
DA:236,0
DA:240,0
DA:244,0
DA:246,0
DA:247,0
DA:249,0
DA:250,0
DA:251,0
DA:252,0
DA:254,0
DA:256,0
DA:258,0
DA:259,0
DA:260,0
DA:262,0
DA:263,0
DA:266,0
DA:267,0
DA:268,0
DA:269,0
DA:270,0
DA:271,0
DA:272,0
DA:273,0
DA:275,0
DA:276,0
DA:277,0
DA:278,0
DA:279,0
DA:280,0
DA:281,0
DA:282,0
DA:284,0
DA:289,0
DA:291,0
DA:292,0
DA:293,0
DA:303,0
DA:305,0
DA:307,0
DA:310,0
DA:314,0
DA:316,0
DA:318,0
DA:319,0
DA:320,0
DA:325,0
DA:327,0
DA:329,0
DA:331,0
DA:332,0
DA:351,0
DA:355,0
DA:358,0
DA:361,0
DA:364,0
DA:367,0
DA:370,0
DA:373,0
DA:376,0
DA:380,0
DA:403,0
DA:406,0
DA:409,0
DA:412,0
DA:415,0
DA:418,0
DA:466,0
DA:468,0
DA:470,0
DA:474,0
DA:476,0
DA:478,0
LF:173
LH:0
end_of_record
SF:/home/runner/work/ad-rss-lib/ad-rss-lib/ad_rss_map_integration/impl/tests/RssSceneCreationTestEgoSouth2EastOtherSouth2North.cpp
FN:11,_ZN58RssSceneCreationTestWithRouteEgoSouth2EastOtherSouth2NorthC2Ev
FN:11,_ZN58RssSceneCreationTestWithRouteEgoSouth2EastOtherSouth2NorthD0Ev
FN:11,_ZN58RssSceneCreationTestWithRouteEgoSouth2EastOtherSouth2NorthD2Ev
FN:28,_ZN69RssSceneCreationTestWithRouteEgoSouth2EastOtherSouth2North_e0_o0_TestD0Ev
FN:28,_ZN69RssSceneCreationTestWithRouteEgoSouth2EastOtherSouth2North_e0_o0_Test8TestBodyEv
FN:28,_ZN69RssSceneCreationTestWithRouteEgoSouth2EastOtherSouth2North_e0_o0_TestC2Ev
FN:28,_ZN69RssSceneCreationTestWithRouteEgoSouth2EastOtherSouth2North_e0_o0_TestD2Ev
FN:37,_ZN69RssSceneCreationTestWithRouteEgoSouth2EastOtherSouth2North_e0_o1_Test8TestBodyEv
FN:37,_ZN69RssSceneCreationTestWithRouteEgoSouth2EastOtherSouth2North_e0_o1_TestD2Ev
FN:37,_ZN69RssSceneCreationTestWithRouteEgoSouth2EastOtherSouth2North_e0_o1_TestD0Ev
FN:37,_ZN69RssSceneCreationTestWithRouteEgoSouth2EastOtherSouth2North_e0_o1_TestC2Ev
FN:45,_ZN69RssSceneCreationTestWithRouteEgoSouth2EastOtherSouth2North_e0_o2_TestD0Ev
FN:45,_ZN69RssSceneCreationTestWithRouteEgoSouth2EastOtherSouth2North_e0_o2_TestD2Ev
FN:45,_ZN69RssSceneCreationTestWithRouteEgoSouth2EastOtherSouth2North_e0_o2_Test8TestBodyEv
FN:45,_ZN69RssSceneCreationTestWithRouteEgoSouth2EastOtherSouth2North_e0_o2_TestC2Ev
FN:53,_ZN69RssSceneCreationTestWithRouteEgoSouth2EastOtherSouth2North_e0_o3_TestC2Ev
FN:53,_ZN69RssSceneCreationTestWithRouteEgoSouth2EastOtherSouth2North_e0_o3_TestD0Ev
FN:53,_ZN69RssSceneCreationTestWithRouteEgoSouth2EastOtherSouth2North_e0_o3_Test8TestBodyEv
FN:53,_ZN69RssSceneCreationTestWithRouteEgoSouth2EastOtherSouth2North_e0_o3_TestD2Ev
FN:61,_ZN69RssSceneCreationTestWithRouteEgoSouth2EastOtherSouth2North_e0_o4_TestD2Ev
FN:61,_ZN69RssSceneCreationTestWithRouteEgoSouth2EastOtherSouth2North_e0_o4_TestC2Ev
FN:61,_ZN69RssSceneCreationTestWithRouteEgoSouth2EastOtherSouth2North_e0_o4_TestD0Ev
FN:61,_ZN69RssSceneCreationTestWithRouteEgoSouth2EastOtherSouth2North_e0_o4_Test8TestBodyEv
FN:69,_ZN69RssSceneCreationTestWithRouteEgoSouth2EastOtherSouth2North_e1_o0_Test8TestBodyEv
FN:69,_ZN69RssSceneCreationTestWithRouteEgoSouth2EastOtherSouth2North_e1_o0_TestD0Ev
FN:69,_ZN69RssSceneCreationTestWithRouteEgoSouth2EastOtherSouth2North_e1_o0_TestD2Ev
FN:69,_ZN69RssSceneCreationTestWithRouteEgoSouth2EastOtherSouth2North_e1_o0_TestC2Ev
FN:78,_ZN69RssSceneCreationTestWithRouteEgoSouth2EastOtherSouth2North_e1_o1_TestD0Ev
FN:78,_ZN69RssSceneCreationTestWithRouteEgoSouth2EastOtherSouth2North_e1_o1_TestC2Ev
FN:78,_ZN69RssSceneCreationTestWithRouteEgoSouth2EastOtherSouth2North_e1_o1_TestD2Ev
FN:78,_ZN69RssSceneCreationTestWithRouteEgoSouth2EastOtherSouth2North_e1_o1_Test8TestBodyEv
FN:87,_ZN69RssSceneCreationTestWithRouteEgoSouth2EastOtherSouth2North_e1_o2_Test8TestBodyEv
FN:87,_ZN69RssSceneCreationTestWithRouteEgoSouth2EastOtherSouth2North_e1_o2_TestD2Ev
FN:87,_ZN69RssSceneCreationTestWithRouteEgoSouth2EastOtherSouth2North_e1_o2_TestD0Ev
FN:87,_ZN69RssSceneCreationTestWithRouteEgoSouth2EastOtherSouth2North_e1_o2_TestC2Ev
FN:95,_ZN69RssSceneCreationTestWithRouteEgoSouth2EastOtherSouth2North_e1_o3_TestC2Ev
FN:95,_ZN69RssSceneCreationTestWithRouteEgoSouth2EastOtherSouth2North_e1_o3_Test8TestBodyEv
FN:95,_ZN69RssSceneCreationTestWithRouteEgoSouth2EastOtherSouth2North_e1_o3_TestD0Ev
FN:95,_ZN69RssSceneCreationTestWithRouteEgoSouth2EastOtherSouth2North_e1_o3_TestD2Ev
FN:103,_ZN69RssSceneCreationTestWithRouteEgoSouth2EastOtherSouth2North_e1_o4_TestD2Ev
FN:103,_ZN69RssSceneCreationTestWithRouteEgoSouth2EastOtherSouth2North_e1_o4_TestC2Ev
FN:103,_ZN69RssSceneCreationTestWithRouteEgoSouth2EastOtherSouth2North_e1_o4_Test8TestBodyEv
FN:103,_ZN69RssSceneCreationTestWithRouteEgoSouth2EastOtherSouth2North_e1_o4_TestD0Ev
FN:111,_ZN69RssSceneCreationTestWithRouteEgoSouth2EastOtherSouth2North_e2_o0_TestD2Ev
FN:111,_ZN69RssSceneCreationTestWithRouteEgoSouth2EastOtherSouth2North_e2_o0_Test8TestBodyEv
FN:111,_ZN69RssSceneCreationTestWithRouteEgoSouth2EastOtherSouth2North_e2_o0_TestD0Ev
FN:111,_ZN69RssSceneCreationTestWithRouteEgoSouth2EastOtherSouth2North_e2_o0_TestC2Ev
FN:120,_ZN69RssSceneCreationTestWithRouteEgoSouth2EastOtherSouth2North_e2_o1_TestD0Ev
FN:120,_ZN69RssSceneCreationTestWithRouteEgoSouth2EastOtherSouth2North_e2_o1_TestC2Ev
FN:120,_ZN69RssSceneCreationTestWithRouteEgoSouth2EastOtherSouth2North_e2_o1_TestD2Ev
FN:120,_ZN69RssSceneCreationTestWithRouteEgoSouth2EastOtherSouth2North_e2_o1_Test8TestBodyEv
FN:129,_ZN69RssSceneCreationTestWithRouteEgoSouth2EastOtherSouth2North_e2_o2_TestC2Ev
FN:129,_ZN69RssSceneCreationTestWithRouteEgoSouth2EastOtherSouth2North_e2_o2_TestD2Ev
FN:129,_ZN69RssSceneCreationTestWithRouteEgoSouth2EastOtherSouth2North_e2_o2_TestD0Ev
FN:129,_ZN69RssSceneCreationTestWithRouteEgoSouth2EastOtherSouth2North_e2_o2_Test8TestBodyEv
FN:138,_ZN69RssSceneCreationTestWithRouteEgoSouth2EastOtherSouth2North_e2_o3_TestC2Ev
FN:138,_ZN69RssSceneCreationTestWithRouteEgoSouth2EastOtherSouth2North_e2_o3_TestD0Ev
FN:138,_ZN69RssSceneCreationTestWithRouteEgoSouth2EastOtherSouth2North_e2_o3_Test8TestBodyEv
FN:138,_ZN69RssSceneCreationTestWithRouteEgoSouth2EastOtherSouth2North_e2_o3_TestD2Ev
FN:146,_ZN69RssSceneCreationTestWithRouteEgoSouth2EastOtherSouth2North_e2_o4_TestD2Ev
FN:146,_ZN69RssSceneCreationTestWithRouteEgoSouth2EastOtherSouth2North_e2_o4_TestC2Ev
FN:146,_ZN69RssSceneCreationTestWithRouteEgoSouth2EastOtherSouth2North_e2_o4_TestD0Ev
FN:146,_ZN69RssSceneCreationTestWithRouteEgoSouth2EastOtherSouth2North_e2_o4_Test8TestBodyEv
FN:154,_ZN69RssSceneCreationTestWithRouteEgoSouth2EastOtherSouth2North_e3_o0_TestC2Ev
FN:154,_ZN69RssSceneCreationTestWithRouteEgoSouth2EastOtherSouth2North_e3_o0_TestD0Ev
FN:154,_ZN69RssSceneCreationTestWithRouteEgoSouth2EastOtherSouth2North_e3_o0_Test8TestBodyEv
FN:154,_ZN69RssSceneCreationTestWithRouteEgoSouth2EastOtherSouth2North_e3_o0_TestD2Ev
FN:163,_ZN69RssSceneCreationTestWithRouteEgoSouth2EastOtherSouth2North_e3_o1_TestD2Ev
FN:163,_ZN69RssSceneCreationTestWithRouteEgoSouth2EastOtherSouth2North_e3_o1_TestC2Ev
FN:163,_ZN69RssSceneCreationTestWithRouteEgoSouth2EastOtherSouth2North_e3_o1_TestD0Ev
FN:163,_ZN69RssSceneCreationTestWithRouteEgoSouth2EastOtherSouth2North_e3_o1_Test8TestBodyEv
FN:172,_ZN69RssSceneCreationTestWithRouteEgoSouth2EastOtherSouth2North_e3_o2_TestC2Ev
FN:172,_ZN69RssSceneCreationTestWithRouteEgoSouth2EastOtherSouth2North_e3_o2_Test8TestBodyEv
FN:172,_ZN69RssSceneCreationTestWithRouteEgoSouth2EastOtherSouth2North_e3_o2_TestD2Ev
FN:172,_ZN69RssSceneCreationTestWithRouteEgoSouth2EastOtherSouth2North_e3_o2_TestD0Ev
FN:180,_ZN69RssSceneCreationTestWithRouteEgoSouth2EastOtherSouth2North_e3_o3_TestD0Ev
FN:180,_ZN69RssSceneCreationTestWithRouteEgoSouth2EastOtherSouth2North_e3_o3_TestD2Ev
FN:180,_ZN69RssSceneCreationTestWithRouteEgoSouth2EastOtherSouth2North_e3_o3_TestC2Ev
FN:180,_ZN69RssSceneCreationTestWithRouteEgoSouth2EastOtherSouth2North_e3_o3_Test8TestBodyEv
FN:188,_ZN69RssSceneCreationTestWithRouteEgoSouth2EastOtherSouth2North_e3_o4_TestD2Ev
FN:188,_ZN69RssSceneCreationTestWithRouteEgoSouth2EastOtherSouth2North_e3_o4_Test8TestBodyEv
FN:188,_ZN69RssSceneCreationTestWithRouteEgoSouth2EastOtherSouth2North_e3_o4_TestC2Ev
FN:188,_ZN69RssSceneCreationTestWithRouteEgoSouth2EastOtherSouth2North_e3_o4_TestD0Ev
FN:196,_ZN69RssSceneCreationTestWithRouteEgoSouth2EastOtherSouth2North_e4_o0_TestC2Ev
FN:196,_ZN69RssSceneCreationTestWithRouteEgoSouth2EastOtherSouth2North_e4_o0_TestD0Ev
FN:196,_ZN69RssSceneCreationTestWithRouteEgoSouth2EastOtherSouth2North_e4_o0_Test8TestBodyEv
FN:196,_ZN69RssSceneCreationTestWithRouteEgoSouth2EastOtherSouth2North_e4_o0_TestD2Ev
FN:205,_ZN69RssSceneCreationTestWithRouteEgoSouth2EastOtherSouth2North_e4_o1_TestD0Ev
FN:205,_ZN69RssSceneCreationTestWithRouteEgoSouth2EastOtherSouth2North_e4_o1_Test8TestBodyEv
FN:205,_ZN69RssSceneCreationTestWithRouteEgoSouth2EastOtherSouth2North_e4_o1_TestC2Ev
FN:205,_ZN69RssSceneCreationTestWithRouteEgoSouth2EastOtherSouth2North_e4_o1_TestD2Ev
FN:214,_ZN69RssSceneCreationTestWithRouteEgoSouth2EastOtherSouth2North_e4_o2_TestD0Ev
FN:214,_ZN69RssSceneCreationTestWithRouteEgoSouth2EastOtherSouth2North_e4_o2_TestC2Ev
FN:214,_ZN69RssSceneCreationTestWithRouteEgoSouth2EastOtherSouth2North_e4_o2_Test8TestBodyEv
FN:214,_ZN69RssSceneCreationTestWithRouteEgoSouth2EastOtherSouth2North_e4_o2_TestD2Ev
FN:222,_ZN69RssSceneCreationTestWithRouteEgoSouth2EastOtherSouth2North_e4_o3_TestD2Ev
FN:222,_ZN69RssSceneCreationTestWithRouteEgoSouth2EastOtherSouth2North_e4_o3_TestC2Ev
FN:222,_ZN69RssSceneCreationTestWithRouteEgoSouth2EastOtherSouth2North_e4_o3_Test8TestBodyEv
FN:222,_ZN69RssSceneCreationTestWithRouteEgoSouth2EastOtherSouth2North_e4_o3_TestD0Ev
FN:230,_ZN69RssSceneCreationTestWithRouteEgoSouth2EastOtherSouth2North_e4_o4_TestD2Ev
FN:230,_ZN69RssSceneCreationTestWithRouteEgoSouth2EastOtherSouth2North_e4_o4_Test8TestBodyEv
FN:230,_ZN69RssSceneCreationTestWithRouteEgoSouth2EastOtherSouth2North_e4_o4_TestD0Ev
FN:230,_ZN69RssSceneCreationTestWithRouteEgoSouth2EastOtherSouth2North_e4_o4_TestC2Ev
FN:238,_ZN61RssSceneCreationTestWithoutRouteEgoSouth2EastOtherSouth2NorthD2Ev
FN:238,_ZN61RssSceneCreationTestWithoutRouteEgoSouth2EastOtherSouth2NorthC2Ev
FN:238,_ZN61RssSceneCreationTestWithoutRouteEgoSouth2EastOtherSouth2NorthD0Ev
FN:256,_ZN72RssSceneCreationTestWithoutRouteEgoSouth2EastOtherSouth2North_e0_o0_TestD2Ev
FN:256,_ZN72RssSceneCreationTestWithoutRouteEgoSouth2EastOtherSouth2North_e0_o0_Test8TestBodyEv
FN:256,_ZN72RssSceneCreationTestWithoutRouteEgoSouth2EastOtherSouth2North_e0_o0_TestD0Ev
FN:256,_ZN72RssSceneCreationTestWithoutRouteEgoSouth2EastOtherSouth2North_e0_o0_TestC2Ev
FN:264,_ZN72RssSceneCreationTestWithoutRouteEgoSouth2EastOtherSouth2North_e0_o1_Test8TestBodyEv
FN:264,_ZN72RssSceneCreationTestWithoutRouteEgoSouth2EastOtherSouth2North_e0_o1_TestD2Ev
FN:264,_ZN72RssSceneCreationTestWithoutRouteEgoSouth2EastOtherSouth2North_e0_o1_TestC2Ev
FN:264,_ZN72RssSceneCreationTestWithoutRouteEgoSouth2EastOtherSouth2North_e0_o1_TestD0Ev
FN:272,_ZN72RssSceneCreationTestWithoutRouteEgoSouth2EastOtherSouth2North_e0_o2_TestD0Ev
FN:272,_ZN72RssSceneCreationTestWithoutRouteEgoSouth2EastOtherSouth2North_e0_o2_Test8TestBodyEv
FN:272,_ZN72RssSceneCreationTestWithoutRouteEgoSouth2EastOtherSouth2North_e0_o2_TestC2Ev
FN:272,_ZN72RssSceneCreationTestWithoutRouteEgoSouth2EastOtherSouth2North_e0_o2_TestD2Ev
FN:280,_ZN72RssSceneCreationTestWithoutRouteEgoSouth2EastOtherSouth2North_e0_o3_TestD0Ev
FN:280,_ZN72RssSceneCreationTestWithoutRouteEgoSouth2EastOtherSouth2North_e0_o3_Test8TestBodyEv
FN:280,_ZN72RssSceneCreationTestWithoutRouteEgoSouth2EastOtherSouth2North_e0_o3_TestD2Ev
FN:280,_ZN72RssSceneCreationTestWithoutRouteEgoSouth2EastOtherSouth2North_e0_o3_TestC2Ev
FN:288,_ZN72RssSceneCreationTestWithoutRouteEgoSouth2EastOtherSouth2North_e0_o4_TestD2Ev
FN:288,_ZN72RssSceneCreationTestWithoutRouteEgoSouth2EastOtherSouth2North_e0_o4_TestD0Ev
FN:288,_ZN72RssSceneCreationTestWithoutRouteEgoSouth2EastOtherSouth2North_e0_o4_Test8TestBodyEv
FN:288,_ZN72RssSceneCreationTestWithoutRouteEgoSouth2EastOtherSouth2North_e0_o4_TestC2Ev
FN:296,_ZN72RssSceneCreationTestWithoutRouteEgoSouth2EastOtherSouth2North_e1_o0_Test8TestBodyEv
FN:296,_ZN72RssSceneCreationTestWithoutRouteEgoSouth2EastOtherSouth2North_e1_o0_TestD0Ev
FN:296,_ZN72RssSceneCreationTestWithoutRouteEgoSouth2EastOtherSouth2North_e1_o0_TestC2Ev
FN:296,_ZN72RssSceneCreationTestWithoutRouteEgoSouth2EastOtherSouth2North_e1_o0_TestD2Ev
FN:305,_ZN72RssSceneCreationTestWithoutRouteEgoSouth2EastOtherSouth2North_e1_o1_TestC2Ev
FN:305,_ZN72RssSceneCreationTestWithoutRouteEgoSouth2EastOtherSouth2North_e1_o1_TestD2Ev
FN:305,_ZN72RssSceneCreationTestWithoutRouteEgoSouth2EastOtherSouth2North_e1_o1_TestD0Ev
FN:305,_ZN72RssSceneCreationTestWithoutRouteEgoSouth2EastOtherSouth2North_e1_o1_Test8TestBodyEv
FN:314,_ZN72RssSceneCreationTestWithoutRouteEgoSouth2EastOtherSouth2North_e1_o2_Test8TestBodyEv
FN:314,_ZN72RssSceneCreationTestWithoutRouteEgoSouth2EastOtherSouth2North_e1_o2_TestC2Ev
FN:314,_ZN72RssSceneCreationTestWithoutRouteEgoSouth2EastOtherSouth2North_e1_o2_TestD2Ev
FN:314,_ZN72RssSceneCreationTestWithoutRouteEgoSouth2EastOtherSouth2North_e1_o2_TestD0Ev
FN:322,_ZN72RssSceneCreationTestWithoutRouteEgoSouth2EastOtherSouth2North_e1_o3_TestC2Ev
FN:322,_ZN72RssSceneCreationTestWithoutRouteEgoSouth2EastOtherSouth2North_e1_o3_Test8TestBodyEv
FN:322,_ZN72RssSceneCreationTestWithoutRouteEgoSouth2EastOtherSouth2North_e1_o3_TestD0Ev
FN:322,_ZN72RssSceneCreationTestWithoutRouteEgoSouth2EastOtherSouth2North_e1_o3_TestD2Ev
FN:330,_ZN72RssSceneCreationTestWithoutRouteEgoSouth2EastOtherSouth2North_e1_o4_Test8TestBodyEv
FN:330,_ZN72RssSceneCreationTestWithoutRouteEgoSouth2EastOtherSouth2North_e1_o4_TestD2Ev
FN:330,_ZN72RssSceneCreationTestWithoutRouteEgoSouth2EastOtherSouth2North_e1_o4_TestC2Ev
FN:330,_ZN72RssSceneCreationTestWithoutRouteEgoSouth2EastOtherSouth2North_e1_o4_TestD0Ev
FN:338,_ZN72RssSceneCreationTestWithoutRouteEgoSouth2EastOtherSouth2North_e2_o0_TestD0Ev
FN:338,_ZN72RssSceneCreationTestWithoutRouteEgoSouth2EastOtherSouth2North_e2_o0_TestC2Ev
FN:338,_ZN72RssSceneCreationTestWithoutRouteEgoSouth2EastOtherSouth2North_e2_o0_Test8TestBodyEv
FN:338,_ZN72RssSceneCreationTestWithoutRouteEgoSouth2EastOtherSouth2North_e2_o0_TestD2Ev
FN:347,_ZN72RssSceneCreationTestWithoutRouteEgoSouth2EastOtherSouth2North_e2_o1_Test8TestBodyEv
FN:347,_ZN72RssSceneCreationTestWithoutRouteEgoSouth2EastOtherSouth2North_e2_o1_TestD2Ev
FN:347,_ZN72RssSceneCreationTestWithoutRouteEgoSouth2EastOtherSouth2North_e2_o1_TestD0Ev
FN:347,_ZN72RssSceneCreationTestWithoutRouteEgoSouth2EastOtherSouth2North_e2_o1_TestC2Ev
FN:356,_ZN72RssSceneCreationTestWithoutRouteEgoSouth2EastOtherSouth2North_e2_o2_TestD2Ev
FN:356,_ZN72RssSceneCreationTestWithoutRouteEgoSouth2EastOtherSouth2North_e2_o2_TestD0Ev
FN:356,_ZN72RssSceneCreationTestWithoutRouteEgoSouth2EastOtherSouth2North_e2_o2_Test8TestBodyEv
FN:356,_ZN72RssSceneCreationTestWithoutRouteEgoSouth2EastOtherSouth2North_e2_o2_TestC2Ev
FN:364,_ZN72RssSceneCreationTestWithoutRouteEgoSouth2EastOtherSouth2North_e2_o3_Test8TestBodyEv
FN:364,_ZN72RssSceneCreationTestWithoutRouteEgoSouth2EastOtherSouth2North_e2_o3_TestD0Ev
FN:364,_ZN72RssSceneCreationTestWithoutRouteEgoSouth2EastOtherSouth2North_e2_o3_TestD2Ev
FN:364,_ZN72RssSceneCreationTestWithoutRouteEgoSouth2EastOtherSouth2North_e2_o3_TestC2Ev
FN:372,_ZN72RssSceneCreationTestWithoutRouteEgoSouth2EastOtherSouth2North_e2_o4_TestD2Ev
FN:372,_ZN72RssSceneCreationTestWithoutRouteEgoSouth2EastOtherSouth2North_e2_o4_TestD0Ev
FN:372,_ZN72RssSceneCreationTestWithoutRouteEgoSouth2EastOtherSouth2North_e2_o4_TestC2Ev
FN:372,_ZN72RssSceneCreationTestWithoutRouteEgoSouth2EastOtherSouth2North_e2_o4_Test8TestBodyEv
FN:380,_ZN72RssSceneCreationTestWithoutRouteEgoSouth2EastOtherSouth2North_e3_o0_Test8TestBodyEv
FN:380,_ZN72RssSceneCreationTestWithoutRouteEgoSouth2EastOtherSouth2North_e3_o0_TestD2Ev
FN:380,_ZN72RssSceneCreationTestWithoutRouteEgoSouth2EastOtherSouth2North_e3_o0_TestC2Ev
FN:380,_ZN72RssSceneCreationTestWithoutRouteEgoSouth2EastOtherSouth2North_e3_o0_TestD0Ev
FN:389,_ZN72RssSceneCreationTestWithoutRouteEgoSouth2EastOtherSouth2North_e3_o1_Test8TestBodyEv
FN:389,_ZN72RssSceneCreationTestWithoutRouteEgoSouth2EastOtherSouth2North_e3_o1_TestD2Ev
FN:389,_ZN72RssSceneCreationTestWithoutRouteEgoSouth2EastOtherSouth2North_e3_o1_TestC2Ev
FN:389,_ZN72RssSceneCreationTestWithoutRouteEgoSouth2EastOtherSouth2North_e3_o1_TestD0Ev
FN:398,_ZN72RssSceneCreationTestWithoutRouteEgoSouth2EastOtherSouth2North_e3_o2_Test8TestBodyEv
FN:398,_ZN72RssSceneCreationTestWithoutRouteEgoSouth2EastOtherSouth2North_e3_o2_TestC2Ev
FN:398,_ZN72RssSceneCreationTestWithoutRouteEgoSouth2EastOtherSouth2North_e3_o2_TestD0Ev
FN:398,_ZN72RssSceneCreationTestWithoutRouteEgoSouth2EastOtherSouth2North_e3_o2_TestD2Ev
FN:406,_ZN72RssSceneCreationTestWithoutRouteEgoSouth2EastOtherSouth2North_e3_o3_TestC2Ev
FN:406,_ZN72RssSceneCreationTestWithoutRouteEgoSouth2EastOtherSouth2North_e3_o3_Test8TestBodyEv
FN:406,_ZN72RssSceneCreationTestWithoutRouteEgoSouth2EastOtherSouth2North_e3_o3_TestD0Ev
FN:406,_ZN72RssSceneCreationTestWithoutRouteEgoSouth2EastOtherSouth2North_e3_o3_TestD2Ev
FN:414,_ZN72RssSceneCreationTestWithoutRouteEgoSouth2EastOtherSouth2North_e3_o4_TestC2Ev
FN:414,_ZN72RssSceneCreationTestWithoutRouteEgoSouth2EastOtherSouth2North_e3_o4_TestD0Ev
FN:414,_ZN72RssSceneCreationTestWithoutRouteEgoSouth2EastOtherSouth2North_e3_o4_Test8TestBodyEv
FN:414,_ZN72RssSceneCreationTestWithoutRouteEgoSouth2EastOtherSouth2North_e3_o4_TestD2Ev
FN:422,_ZN72RssSceneCreationTestWithoutRouteEgoSouth2EastOtherSouth2North_e4_o0_TestC2Ev
FN:422,_ZN72RssSceneCreationTestWithoutRouteEgoSouth2EastOtherSouth2North_e4_o0_TestD2Ev
FN:422,_ZN72RssSceneCreationTestWithoutRouteEgoSouth2EastOtherSouth2North_e4_o0_TestD0Ev
FN:422,_ZN72RssSceneCreationTestWithoutRouteEgoSouth2EastOtherSouth2North_e4_o0_Test8TestBodyEv
FN:431,_ZN72RssSceneCreationTestWithoutRouteEgoSouth2EastOtherSouth2North_e4_o1_Test8TestBodyEv
FN:431,_ZN72RssSceneCreationTestWithoutRouteEgoSouth2EastOtherSouth2North_e4_o1_TestD2Ev
FN:431,_ZN72RssSceneCreationTestWithoutRouteEgoSouth2EastOtherSouth2North_e4_o1_TestC2Ev
FN:431,_ZN72RssSceneCreationTestWithoutRouteEgoSouth2EastOtherSouth2North_e4_o1_TestD0Ev
FN:440,_ZN72RssSceneCreationTestWithoutRouteEgoSouth2EastOtherSouth2North_e4_o2_TestC2Ev
FN:440,_ZN72RssSceneCreationTestWithoutRouteEgoSouth2EastOtherSouth2North_e4_o2_TestD0Ev
FN:440,_ZN72RssSceneCreationTestWithoutRouteEgoSouth2EastOtherSouth2North_e4_o2_Test8TestBodyEv
FN:440,_ZN72RssSceneCreationTestWithoutRouteEgoSouth2EastOtherSouth2North_e4_o2_TestD2Ev
FN:448,_ZN72RssSceneCreationTestWithoutRouteEgoSouth2EastOtherSouth2North_e4_o3_TestD2Ev
FN:448,_ZN72RssSceneCreationTestWithoutRouteEgoSouth2EastOtherSouth2North_e4_o3_Test8TestBodyEv
FN:448,_ZN72RssSceneCreationTestWithoutRouteEgoSouth2EastOtherSouth2North_e4_o3_TestD0Ev
FN:448,_ZN72RssSceneCreationTestWithoutRouteEgoSouth2EastOtherSouth2North_e4_o3_TestC2Ev
FN:456,_ZN72RssSceneCreationTestWithoutRouteEgoSouth2EastOtherSouth2North_e4_o4_TestD2Ev
FN:456,_ZN72RssSceneCreationTestWithoutRouteEgoSouth2EastOtherSouth2North_e4_o4_TestC2Ev
FN:456,_ZN72RssSceneCreationTestWithoutRouteEgoSouth2EastOtherSouth2North_e4_o4_TestD0Ev
FN:456,_ZN72RssSceneCreationTestWithoutRouteEgoSouth2EastOtherSouth2North_e4_o4_Test8TestBodyEv
FN:462,_GLOBAL__sub_I__ZN69RssSceneCreationTestWithRouteEgoSouth2EastOtherSouth2North_e0_o0_Test10test_info_E
FN:462,_Z41__static_initialization_and_destruction_0ii
FNDA:0,_ZN58RssSceneCreationTestWithRouteEgoSouth2EastOtherSouth2NorthC2Ev
FNDA:0,_ZN58RssSceneCreationTestWithRouteEgoSouth2EastOtherSouth2NorthD0Ev
FNDA:0,_ZN58RssSceneCreationTestWithRouteEgoSouth2EastOtherSouth2NorthD2Ev
FNDA:0,_ZN69RssSceneCreationTestWithRouteEgoSouth2EastOtherSouth2North_e0_o0_TestD0Ev
FNDA:0,_ZN69RssSceneCreationTestWithRouteEgoSouth2EastOtherSouth2North_e0_o0_Test8TestBodyEv
FNDA:0,_ZN69RssSceneCreationTestWithRouteEgoSouth2EastOtherSouth2North_e0_o0_TestC2Ev
FNDA:0,_ZN69RssSceneCreationTestWithRouteEgoSouth2EastOtherSouth2North_e0_o0_TestD2Ev
FNDA:0,_ZN69RssSceneCreationTestWithRouteEgoSouth2EastOtherSouth2North_e0_o1_Test8TestBodyEv
FNDA:0,_ZN69RssSceneCreationTestWithRouteEgoSouth2EastOtherSouth2North_e0_o1_TestD2Ev
FNDA:0,_ZN69RssSceneCreationTestWithRouteEgoSouth2EastOtherSouth2North_e0_o1_TestD0Ev
FNDA:0,_ZN69RssSceneCreationTestWithRouteEgoSouth2EastOtherSouth2North_e0_o1_TestC2Ev
FNDA:0,_ZN69RssSceneCreationTestWithRouteEgoSouth2EastOtherSouth2North_e0_o2_TestD0Ev
FNDA:0,_ZN69RssSceneCreationTestWithRouteEgoSouth2EastOtherSouth2North_e0_o2_TestD2Ev
FNDA:0,_ZN69RssSceneCreationTestWithRouteEgoSouth2EastOtherSouth2North_e0_o2_Test8TestBodyEv
FNDA:0,_ZN69RssSceneCreationTestWithRouteEgoSouth2EastOtherSouth2North_e0_o2_TestC2Ev
FNDA:0,_ZN69RssSceneCreationTestWithRouteEgoSouth2EastOtherSouth2North_e0_o3_TestC2Ev
FNDA:0,_ZN69RssSceneCreationTestWithRouteEgoSouth2EastOtherSouth2North_e0_o3_TestD0Ev
FNDA:0,_ZN69RssSceneCreationTestWithRouteEgoSouth2EastOtherSouth2North_e0_o3_Test8TestBodyEv
FNDA:0,_ZN69RssSceneCreationTestWithRouteEgoSouth2EastOtherSouth2North_e0_o3_TestD2Ev
FNDA:0,_ZN69RssSceneCreationTestWithRouteEgoSouth2EastOtherSouth2North_e0_o4_TestD2Ev
FNDA:0,_ZN69RssSceneCreationTestWithRouteEgoSouth2EastOtherSouth2North_e0_o4_TestC2Ev
FNDA:0,_ZN69RssSceneCreationTestWithRouteEgoSouth2EastOtherSouth2North_e0_o4_TestD0Ev
FNDA:0,_ZN69RssSceneCreationTestWithRouteEgoSouth2EastOtherSouth2North_e0_o4_Test8TestBodyEv
FNDA:0,_ZN69RssSceneCreationTestWithRouteEgoSouth2EastOtherSouth2North_e1_o0_Test8TestBodyEv
FNDA:0,_ZN69RssSceneCreationTestWithRouteEgoSouth2EastOtherSouth2North_e1_o0_TestD0Ev
FNDA:0,_ZN69RssSceneCreationTestWithRouteEgoSouth2EastOtherSouth2North_e1_o0_TestD2Ev
FNDA:0,_ZN69RssSceneCreationTestWithRouteEgoSouth2EastOtherSouth2North_e1_o0_TestC2Ev
FNDA:0,_ZN69RssSceneCreationTestWithRouteEgoSouth2EastOtherSouth2North_e1_o1_TestD0Ev
FNDA:0,_ZN69RssSceneCreationTestWithRouteEgoSouth2EastOtherSouth2North_e1_o1_TestC2Ev
FNDA:0,_ZN69RssSceneCreationTestWithRouteEgoSouth2EastOtherSouth2North_e1_o1_TestD2Ev
FNDA:0,_ZN69RssSceneCreationTestWithRouteEgoSouth2EastOtherSouth2North_e1_o1_Test8TestBodyEv
FNDA:0,_ZN69RssSceneCreationTestWithRouteEgoSouth2EastOtherSouth2North_e1_o2_Test8TestBodyEv
FNDA:0,_ZN69RssSceneCreationTestWithRouteEgoSouth2EastOtherSouth2North_e1_o2_TestD2Ev
FNDA:0,_ZN69RssSceneCreationTestWithRouteEgoSouth2EastOtherSouth2North_e1_o2_TestD0Ev
FNDA:0,_ZN69RssSceneCreationTestWithRouteEgoSouth2EastOtherSouth2North_e1_o2_TestC2Ev
FNDA:0,_ZN69RssSceneCreationTestWithRouteEgoSouth2EastOtherSouth2North_e1_o3_TestC2Ev
FNDA:0,_ZN69RssSceneCreationTestWithRouteEgoSouth2EastOtherSouth2North_e1_o3_Test8TestBodyEv
FNDA:0,_ZN69RssSceneCreationTestWithRouteEgoSouth2EastOtherSouth2North_e1_o3_TestD0Ev
FNDA:0,_ZN69RssSceneCreationTestWithRouteEgoSouth2EastOtherSouth2North_e1_o3_TestD2Ev
FNDA:0,_ZN69RssSceneCreationTestWithRouteEgoSouth2EastOtherSouth2North_e1_o4_TestD2Ev
FNDA:0,_ZN69RssSceneCreationTestWithRouteEgoSouth2EastOtherSouth2North_e1_o4_TestC2Ev
FNDA:0,_ZN69RssSceneCreationTestWithRouteEgoSouth2EastOtherSouth2North_e1_o4_Test8TestBodyEv
FNDA:0,_ZN69RssSceneCreationTestWithRouteEgoSouth2EastOtherSouth2North_e1_o4_TestD0Ev
FNDA:0,_ZN69RssSceneCreationTestWithRouteEgoSouth2EastOtherSouth2North_e2_o0_TestD2Ev
FNDA:0,_ZN69RssSceneCreationTestWithRouteEgoSouth2EastOtherSouth2North_e2_o0_Test8TestBodyEv
FNDA:0,_ZN69RssSceneCreationTestWithRouteEgoSouth2EastOtherSouth2North_e2_o0_TestD0Ev
FNDA:0,_ZN69RssSceneCreationTestWithRouteEgoSouth2EastOtherSouth2North_e2_o0_TestC2Ev
FNDA:0,_ZN69RssSceneCreationTestWithRouteEgoSouth2EastOtherSouth2North_e2_o1_TestD0Ev
FNDA:0,_ZN69RssSceneCreationTestWithRouteEgoSouth2EastOtherSouth2North_e2_o1_TestC2Ev
FNDA:0,_ZN69RssSceneCreationTestWithRouteEgoSouth2EastOtherSouth2North_e2_o1_TestD2Ev
FNDA:0,_ZN69RssSceneCreationTestWithRouteEgoSouth2EastOtherSouth2North_e2_o1_Test8TestBodyEv
FNDA:0,_ZN69RssSceneCreationTestWithRouteEgoSouth2EastOtherSouth2North_e2_o2_TestC2Ev
FNDA:0,_ZN69RssSceneCreationTestWithRouteEgoSouth2EastOtherSouth2North_e2_o2_TestD2Ev
FNDA:0,_ZN69RssSceneCreationTestWithRouteEgoSouth2EastOtherSouth2North_e2_o2_TestD0Ev
FNDA:0,_ZN69RssSceneCreationTestWithRouteEgoSouth2EastOtherSouth2North_e2_o2_Test8TestBodyEv
FNDA:0,_ZN69RssSceneCreationTestWithRouteEgoSouth2EastOtherSouth2North_e2_o3_TestC2Ev
FNDA:0,_ZN69RssSceneCreationTestWithRouteEgoSouth2EastOtherSouth2North_e2_o3_TestD0Ev
FNDA:0,_ZN69RssSceneCreationTestWithRouteEgoSouth2EastOtherSouth2North_e2_o3_Test8TestBodyEv
FNDA:0,_ZN69RssSceneCreationTestWithRouteEgoSouth2EastOtherSouth2North_e2_o3_TestD2Ev
FNDA:0,_ZN69RssSceneCreationTestWithRouteEgoSouth2EastOtherSouth2North_e2_o4_TestD2Ev
FNDA:0,_ZN69RssSceneCreationTestWithRouteEgoSouth2EastOtherSouth2North_e2_o4_TestC2Ev
FNDA:0,_ZN69RssSceneCreationTestWithRouteEgoSouth2EastOtherSouth2North_e2_o4_TestD0Ev
FNDA:0,_ZN69RssSceneCreationTestWithRouteEgoSouth2EastOtherSouth2North_e2_o4_Test8TestBodyEv
FNDA:0,_ZN69RssSceneCreationTestWithRouteEgoSouth2EastOtherSouth2North_e3_o0_TestC2Ev
FNDA:0,_ZN69RssSceneCreationTestWithRouteEgoSouth2EastOtherSouth2North_e3_o0_TestD0Ev
FNDA:0,_ZN69RssSceneCreationTestWithRouteEgoSouth2EastOtherSouth2North_e3_o0_Test8TestBodyEv
FNDA:0,_ZN69RssSceneCreationTestWithRouteEgoSouth2EastOtherSouth2North_e3_o0_TestD2Ev
FNDA:0,_ZN69RssSceneCreationTestWithRouteEgoSouth2EastOtherSouth2North_e3_o1_TestD2Ev
FNDA:0,_ZN69RssSceneCreationTestWithRouteEgoSouth2EastOtherSouth2North_e3_o1_TestC2Ev
FNDA:0,_ZN69RssSceneCreationTestWithRouteEgoSouth2EastOtherSouth2North_e3_o1_TestD0Ev
FNDA:0,_ZN69RssSceneCreationTestWithRouteEgoSouth2EastOtherSouth2North_e3_o1_Test8TestBodyEv
FNDA:0,_ZN69RssSceneCreationTestWithRouteEgoSouth2EastOtherSouth2North_e3_o2_TestC2Ev
FNDA:0,_ZN69RssSceneCreationTestWithRouteEgoSouth2EastOtherSouth2North_e3_o2_Test8TestBodyEv
FNDA:0,_ZN69RssSceneCreationTestWithRouteEgoSouth2EastOtherSouth2North_e3_o2_TestD2Ev
FNDA:0,_ZN69RssSceneCreationTestWithRouteEgoSouth2EastOtherSouth2North_e3_o2_TestD0Ev
FNDA:0,_ZN69RssSceneCreationTestWithRouteEgoSouth2EastOtherSouth2North_e3_o3_TestD0Ev
FNDA:0,_ZN69RssSceneCreationTestWithRouteEgoSouth2EastOtherSouth2North_e3_o3_TestD2Ev
FNDA:0,_ZN69RssSceneCreationTestWithRouteEgoSouth2EastOtherSouth2North_e3_o3_TestC2Ev
FNDA:0,_ZN69RssSceneCreationTestWithRouteEgoSouth2EastOtherSouth2North_e3_o3_Test8TestBodyEv
FNDA:0,_ZN69RssSceneCreationTestWithRouteEgoSouth2EastOtherSouth2North_e3_o4_TestD2Ev
FNDA:0,_ZN69RssSceneCreationTestWithRouteEgoSouth2EastOtherSouth2North_e3_o4_Test8TestBodyEv
FNDA:0,_ZN69RssSceneCreationTestWithRouteEgoSouth2EastOtherSouth2North_e3_o4_TestC2Ev
FNDA:0,_ZN69RssSceneCreationTestWithRouteEgoSouth2EastOtherSouth2North_e3_o4_TestD0Ev
FNDA:0,_ZN69RssSceneCreationTestWithRouteEgoSouth2EastOtherSouth2North_e4_o0_TestC2Ev
FNDA:0,_ZN69RssSceneCreationTestWithRouteEgoSouth2EastOtherSouth2North_e4_o0_TestD0Ev
FNDA:0,_ZN69RssSceneCreationTestWithRouteEgoSouth2EastOtherSouth2North_e4_o0_Test8TestBodyEv
FNDA:0,_ZN69RssSceneCreationTestWithRouteEgoSouth2EastOtherSouth2North_e4_o0_TestD2Ev
FNDA:0,_ZN69RssSceneCreationTestWithRouteEgoSouth2EastOtherSouth2North_e4_o1_TestD0Ev
FNDA:0,_ZN69RssSceneCreationTestWithRouteEgoSouth2EastOtherSouth2North_e4_o1_Test8TestBodyEv
FNDA:0,_ZN69RssSceneCreationTestWithRouteEgoSouth2EastOtherSouth2North_e4_o1_TestC2Ev
FNDA:0,_ZN69RssSceneCreationTestWithRouteEgoSouth2EastOtherSouth2North_e4_o1_TestD2Ev
FNDA:0,_ZN69RssSceneCreationTestWithRouteEgoSouth2EastOtherSouth2North_e4_o2_TestD0Ev
FNDA:0,_ZN69RssSceneCreationTestWithRouteEgoSouth2EastOtherSouth2North_e4_o2_TestC2Ev
FNDA:0,_ZN69RssSceneCreationTestWithRouteEgoSouth2EastOtherSouth2North_e4_o2_Test8TestBodyEv
FNDA:0,_ZN69RssSceneCreationTestWithRouteEgoSouth2EastOtherSouth2North_e4_o2_TestD2Ev
FNDA:0,_ZN69RssSceneCreationTestWithRouteEgoSouth2EastOtherSouth2North_e4_o3_TestD2Ev
FNDA:0,_ZN69RssSceneCreationTestWithRouteEgoSouth2EastOtherSouth2North_e4_o3_TestC2Ev
FNDA:0,_ZN69RssSceneCreationTestWithRouteEgoSouth2EastOtherSouth2North_e4_o3_Test8TestBodyEv
FNDA:0,_ZN69RssSceneCreationTestWithRouteEgoSouth2EastOtherSouth2North_e4_o3_TestD0Ev
FNDA:0,_ZN69RssSceneCreationTestWithRouteEgoSouth2EastOtherSouth2North_e4_o4_TestD2Ev
FNDA:0,_ZN69RssSceneCreationTestWithRouteEgoSouth2EastOtherSouth2North_e4_o4_Test8TestBodyEv
FNDA:0,_ZN69RssSceneCreationTestWithRouteEgoSouth2EastOtherSouth2North_e4_o4_TestD0Ev
FNDA:0,_ZN69RssSceneCreationTestWithRouteEgoSouth2EastOtherSouth2North_e4_o4_TestC2Ev
FNDA:0,_ZN61RssSceneCreationTestWithoutRouteEgoSouth2EastOtherSouth2NorthD2Ev
FNDA:0,_ZN61RssSceneCreationTestWithoutRouteEgoSouth2EastOtherSouth2NorthC2Ev
FNDA:0,_ZN61RssSceneCreationTestWithoutRouteEgoSouth2EastOtherSouth2NorthD0Ev
FNDA:0,_ZN72RssSceneCreationTestWithoutRouteEgoSouth2EastOtherSouth2North_e0_o0_TestD2Ev
FNDA:0,_ZN72RssSceneCreationTestWithoutRouteEgoSouth2EastOtherSouth2North_e0_o0_Test8TestBodyEv
FNDA:0,_ZN72RssSceneCreationTestWithoutRouteEgoSouth2EastOtherSouth2North_e0_o0_TestD0Ev
FNDA:0,_ZN72RssSceneCreationTestWithoutRouteEgoSouth2EastOtherSouth2North_e0_o0_TestC2Ev
FNDA:0,_ZN72RssSceneCreationTestWithoutRouteEgoSouth2EastOtherSouth2North_e0_o1_Test8TestBodyEv
FNDA:0,_ZN72RssSceneCreationTestWithoutRouteEgoSouth2EastOtherSouth2North_e0_o1_TestD2Ev
FNDA:0,_ZN72RssSceneCreationTestWithoutRouteEgoSouth2EastOtherSouth2North_e0_o1_TestC2Ev
FNDA:0,_ZN72RssSceneCreationTestWithoutRouteEgoSouth2EastOtherSouth2North_e0_o1_TestD0Ev
FNDA:0,_ZN72RssSceneCreationTestWithoutRouteEgoSouth2EastOtherSouth2North_e0_o2_TestD0Ev
FNDA:0,_ZN72RssSceneCreationTestWithoutRouteEgoSouth2EastOtherSouth2North_e0_o2_Test8TestBodyEv
FNDA:0,_ZN72RssSceneCreationTestWithoutRouteEgoSouth2EastOtherSouth2North_e0_o2_TestC2Ev
FNDA:0,_ZN72RssSceneCreationTestWithoutRouteEgoSouth2EastOtherSouth2North_e0_o2_TestD2Ev
FNDA:0,_ZN72RssSceneCreationTestWithoutRouteEgoSouth2EastOtherSouth2North_e0_o3_TestD0Ev
FNDA:0,_ZN72RssSceneCreationTestWithoutRouteEgoSouth2EastOtherSouth2North_e0_o3_Test8TestBodyEv
FNDA:0,_ZN72RssSceneCreationTestWithoutRouteEgoSouth2EastOtherSouth2North_e0_o3_TestD2Ev
FNDA:0,_ZN72RssSceneCreationTestWithoutRouteEgoSouth2EastOtherSouth2North_e0_o3_TestC2Ev
FNDA:0,_ZN72RssSceneCreationTestWithoutRouteEgoSouth2EastOtherSouth2North_e0_o4_TestD2Ev
FNDA:0,_ZN72RssSceneCreationTestWithoutRouteEgoSouth2EastOtherSouth2North_e0_o4_TestD0Ev
FNDA:0,_ZN72RssSceneCreationTestWithoutRouteEgoSouth2EastOtherSouth2North_e0_o4_Test8TestBodyEv
FNDA:0,_ZN72RssSceneCreationTestWithoutRouteEgoSouth2EastOtherSouth2North_e0_o4_TestC2Ev
FNDA:0,_ZN72RssSceneCreationTestWithoutRouteEgoSouth2EastOtherSouth2North_e1_o0_Test8TestBodyEv
FNDA:0,_ZN72RssSceneCreationTestWithoutRouteEgoSouth2EastOtherSouth2North_e1_o0_TestD0Ev
FNDA:0,_ZN72RssSceneCreationTestWithoutRouteEgoSouth2EastOtherSouth2North_e1_o0_TestC2Ev
FNDA:0,_ZN72RssSceneCreationTestWithoutRouteEgoSouth2EastOtherSouth2North_e1_o0_TestD2Ev
FNDA:0,_ZN72RssSceneCreationTestWithoutRouteEgoSouth2EastOtherSouth2North_e1_o1_TestC2Ev
FNDA:0,_ZN72RssSceneCreationTestWithoutRouteEgoSouth2EastOtherSouth2North_e1_o1_TestD2Ev
FNDA:0,_ZN72RssSceneCreationTestWithoutRouteEgoSouth2EastOtherSouth2North_e1_o1_TestD0Ev
FNDA:0,_ZN72RssSceneCreationTestWithoutRouteEgoSouth2EastOtherSouth2North_e1_o1_Test8TestBodyEv
FNDA:0,_ZN72RssSceneCreationTestWithoutRouteEgoSouth2EastOtherSouth2North_e1_o2_Test8TestBodyEv
FNDA:0,_ZN72RssSceneCreationTestWithoutRouteEgoSouth2EastOtherSouth2North_e1_o2_TestC2Ev
FNDA:0,_ZN72RssSceneCreationTestWithoutRouteEgoSouth2EastOtherSouth2North_e1_o2_TestD2Ev
FNDA:0,_ZN72RssSceneCreationTestWithoutRouteEgoSouth2EastOtherSouth2North_e1_o2_TestD0Ev
FNDA:0,_ZN72RssSceneCreationTestWithoutRouteEgoSouth2EastOtherSouth2North_e1_o3_TestC2Ev
FNDA:0,_ZN72RssSceneCreationTestWithoutRouteEgoSouth2EastOtherSouth2North_e1_o3_Test8TestBodyEv
FNDA:0,_ZN72RssSceneCreationTestWithoutRouteEgoSouth2EastOtherSouth2North_e1_o3_TestD0Ev
FNDA:0,_ZN72RssSceneCreationTestWithoutRouteEgoSouth2EastOtherSouth2North_e1_o3_TestD2Ev
FNDA:0,_ZN72RssSceneCreationTestWithoutRouteEgoSouth2EastOtherSouth2North_e1_o4_Test8TestBodyEv
FNDA:0,_ZN72RssSceneCreationTestWithoutRouteEgoSouth2EastOtherSouth2North_e1_o4_TestD2Ev
FNDA:0,_ZN72RssSceneCreationTestWithoutRouteEgoSouth2EastOtherSouth2North_e1_o4_TestC2Ev
FNDA:0,_ZN72RssSceneCreationTestWithoutRouteEgoSouth2EastOtherSouth2North_e1_o4_TestD0Ev
FNDA:0,_ZN72RssSceneCreationTestWithoutRouteEgoSouth2EastOtherSouth2North_e2_o0_TestD0Ev
FNDA:0,_ZN72RssSceneCreationTestWithoutRouteEgoSouth2EastOtherSouth2North_e2_o0_TestC2Ev
FNDA:0,_ZN72RssSceneCreationTestWithoutRouteEgoSouth2EastOtherSouth2North_e2_o0_Test8TestBodyEv
FNDA:0,_ZN72RssSceneCreationTestWithoutRouteEgoSouth2EastOtherSouth2North_e2_o0_TestD2Ev
FNDA:0,_ZN72RssSceneCreationTestWithoutRouteEgoSouth2EastOtherSouth2North_e2_o1_Test8TestBodyEv
FNDA:0,_ZN72RssSceneCreationTestWithoutRouteEgoSouth2EastOtherSouth2North_e2_o1_TestD2Ev
FNDA:0,_ZN72RssSceneCreationTestWithoutRouteEgoSouth2EastOtherSouth2North_e2_o1_TestD0Ev
FNDA:0,_ZN72RssSceneCreationTestWithoutRouteEgoSouth2EastOtherSouth2North_e2_o1_TestC2Ev
FNDA:0,_ZN72RssSceneCreationTestWithoutRouteEgoSouth2EastOtherSouth2North_e2_o2_TestD2Ev
FNDA:0,_ZN72RssSceneCreationTestWithoutRouteEgoSouth2EastOtherSouth2North_e2_o2_TestD0Ev
FNDA:0,_ZN72RssSceneCreationTestWithoutRouteEgoSouth2EastOtherSouth2North_e2_o2_Test8TestBodyEv
FNDA:0,_ZN72RssSceneCreationTestWithoutRouteEgoSouth2EastOtherSouth2North_e2_o2_TestC2Ev
FNDA:0,_ZN72RssSceneCreationTestWithoutRouteEgoSouth2EastOtherSouth2North_e2_o3_Test8TestBodyEv
FNDA:0,_ZN72RssSceneCreationTestWithoutRouteEgoSouth2EastOtherSouth2North_e2_o3_TestD0Ev
FNDA:0,_ZN72RssSceneCreationTestWithoutRouteEgoSouth2EastOtherSouth2North_e2_o3_TestD2Ev
FNDA:0,_ZN72RssSceneCreationTestWithoutRouteEgoSouth2EastOtherSouth2North_e2_o3_TestC2Ev
FNDA:0,_ZN72RssSceneCreationTestWithoutRouteEgoSouth2EastOtherSouth2North_e2_o4_TestD2Ev
FNDA:0,_ZN72RssSceneCreationTestWithoutRouteEgoSouth2EastOtherSouth2North_e2_o4_TestD0Ev
FNDA:0,_ZN72RssSceneCreationTestWithoutRouteEgoSouth2EastOtherSouth2North_e2_o4_TestC2Ev
FNDA:0,_ZN72RssSceneCreationTestWithoutRouteEgoSouth2EastOtherSouth2North_e2_o4_Test8TestBodyEv
FNDA:0,_ZN72RssSceneCreationTestWithoutRouteEgoSouth2EastOtherSouth2North_e3_o0_Test8TestBodyEv
FNDA:0,_ZN72RssSceneCreationTestWithoutRouteEgoSouth2EastOtherSouth2North_e3_o0_TestD2Ev
FNDA:0,_ZN72RssSceneCreationTestWithoutRouteEgoSouth2EastOtherSouth2North_e3_o0_TestC2Ev
FNDA:0,_ZN72RssSceneCreationTestWithoutRouteEgoSouth2EastOtherSouth2North_e3_o0_TestD0Ev
FNDA:0,_ZN72RssSceneCreationTestWithoutRouteEgoSouth2EastOtherSouth2North_e3_o1_Test8TestBodyEv
FNDA:0,_ZN72RssSceneCreationTestWithoutRouteEgoSouth2EastOtherSouth2North_e3_o1_TestD2Ev
FNDA:0,_ZN72RssSceneCreationTestWithoutRouteEgoSouth2EastOtherSouth2North_e3_o1_TestC2Ev
FNDA:0,_ZN72RssSceneCreationTestWithoutRouteEgoSouth2EastOtherSouth2North_e3_o1_TestD0Ev
FNDA:0,_ZN72RssSceneCreationTestWithoutRouteEgoSouth2EastOtherSouth2North_e3_o2_Test8TestBodyEv
FNDA:0,_ZN72RssSceneCreationTestWithoutRouteEgoSouth2EastOtherSouth2North_e3_o2_TestC2Ev
FNDA:0,_ZN72RssSceneCreationTestWithoutRouteEgoSouth2EastOtherSouth2North_e3_o2_TestD0Ev
FNDA:0,_ZN72RssSceneCreationTestWithoutRouteEgoSouth2EastOtherSouth2North_e3_o2_TestD2Ev
FNDA:0,_ZN72RssSceneCreationTestWithoutRouteEgoSouth2EastOtherSouth2North_e3_o3_TestC2Ev
FNDA:0,_ZN72RssSceneCreationTestWithoutRouteEgoSouth2EastOtherSouth2North_e3_o3_Test8TestBodyEv
FNDA:0,_ZN72RssSceneCreationTestWithoutRouteEgoSouth2EastOtherSouth2North_e3_o3_TestD0Ev
FNDA:0,_ZN72RssSceneCreationTestWithoutRouteEgoSouth2EastOtherSouth2North_e3_o3_TestD2Ev
FNDA:0,_ZN72RssSceneCreationTestWithoutRouteEgoSouth2EastOtherSouth2North_e3_o4_TestC2Ev
FNDA:0,_ZN72RssSceneCreationTestWithoutRouteEgoSouth2EastOtherSouth2North_e3_o4_TestD0Ev
FNDA:0,_ZN72RssSceneCreationTestWithoutRouteEgoSouth2EastOtherSouth2North_e3_o4_Test8TestBodyEv
FNDA:0,_ZN72RssSceneCreationTestWithoutRouteEgoSouth2EastOtherSouth2North_e3_o4_TestD2Ev
FNDA:0,_ZN72RssSceneCreationTestWithoutRouteEgoSouth2EastOtherSouth2North_e4_o0_TestC2Ev
FNDA:0,_ZN72RssSceneCreationTestWithoutRouteEgoSouth2EastOtherSouth2North_e4_o0_TestD2Ev
FNDA:0,_ZN72RssSceneCreationTestWithoutRouteEgoSouth2EastOtherSouth2North_e4_o0_TestD0Ev
FNDA:0,_ZN72RssSceneCreationTestWithoutRouteEgoSouth2EastOtherSouth2North_e4_o0_Test8TestBodyEv
FNDA:0,_ZN72RssSceneCreationTestWithoutRouteEgoSouth2EastOtherSouth2North_e4_o1_Test8TestBodyEv
FNDA:0,_ZN72RssSceneCreationTestWithoutRouteEgoSouth2EastOtherSouth2North_e4_o1_TestD2Ev
FNDA:0,_ZN72RssSceneCreationTestWithoutRouteEgoSouth2EastOtherSouth2North_e4_o1_TestC2Ev
FNDA:0,_ZN72RssSceneCreationTestWithoutRouteEgoSouth2EastOtherSouth2North_e4_o1_TestD0Ev
FNDA:0,_ZN72RssSceneCreationTestWithoutRouteEgoSouth2EastOtherSouth2North_e4_o2_TestC2Ev
FNDA:0,_ZN72RssSceneCreationTestWithoutRouteEgoSouth2EastOtherSouth2North_e4_o2_TestD0Ev
FNDA:0,_ZN72RssSceneCreationTestWithoutRouteEgoSouth2EastOtherSouth2North_e4_o2_Test8TestBodyEv
FNDA:0,_ZN72RssSceneCreationTestWithoutRouteEgoSouth2EastOtherSouth2North_e4_o2_TestD2Ev
FNDA:0,_ZN72RssSceneCreationTestWithoutRouteEgoSouth2EastOtherSouth2North_e4_o3_TestD2Ev
FNDA:0,_ZN72RssSceneCreationTestWithoutRouteEgoSouth2EastOtherSouth2North_e4_o3_Test8TestBodyEv
FNDA:0,_ZN72RssSceneCreationTestWithoutRouteEgoSouth2EastOtherSouth2North_e4_o3_TestD0Ev
FNDA:0,_ZN72RssSceneCreationTestWithoutRouteEgoSouth2EastOtherSouth2North_e4_o3_TestC2Ev
FNDA:0,_ZN72RssSceneCreationTestWithoutRouteEgoSouth2EastOtherSouth2North_e4_o4_TestD2Ev
FNDA:0,_ZN72RssSceneCreationTestWithoutRouteEgoSouth2EastOtherSouth2North_e4_o4_TestC2Ev
FNDA:0,_ZN72RssSceneCreationTestWithoutRouteEgoSouth2EastOtherSouth2North_e4_o4_TestD0Ev
FNDA:0,_ZN72RssSceneCreationTestWithoutRouteEgoSouth2EastOtherSouth2North_e4_o4_Test8TestBodyEv
FNDA:0,_GLOBAL__sub_I__ZN69RssSceneCreationTestWithRouteEgoSouth2EastOtherSouth2North_e0_o0_Test10test_info_E
FNDA:0,_Z41__static_initialization_and_destruction_0ii
FNF:208
FNH:0
DA:11,0
DA:28,0
DA:30,0
DA:31,0
DA:33,0
DA:34,0
DA:35,0
DA:37,0
DA:39,0
DA:40,0
DA:41,0
DA:42,0
DA:43,0
DA:45,0
DA:47,0
DA:48,0
DA:49,0
DA:50,0
DA:51,0
DA:53,0
DA:55,0
DA:56,0
DA:57,0
DA:58,0
DA:59,0
DA:61,0
DA:63,0
DA:64,0
DA:65,0
DA:66,0
DA:67,0
DA:69,0
DA:71,0
DA:72,0
DA:74,0
DA:75,0
DA:76,0
DA:78,0
DA:80,0
DA:81,0
DA:83,0
DA:84,0
DA:85,0
DA:87,0
DA:89,0
DA:90,0
DA:91,0
DA:92,0
DA:93,0
DA:95,0
DA:97,0
DA:98,0
DA:99,0
DA:100,0
DA:101,0
DA:103,0
DA:105,0
DA:106,0
DA:107,0
DA:108,0
DA:109,0
DA:111,0
DA:113,0
DA:114,0
DA:116,0
DA:117,0
DA:118,0
DA:120,0
DA:122,0
DA:123,0
DA:125,0
DA:126,0
DA:127,0
DA:129,0
DA:131,0
DA:132,0
DA:134,0
DA:135,0
DA:136,0
DA:138,0
DA:140,0
DA:141,0
DA:142,0
DA:143,0
DA:144,0
DA:146,0
DA:148,0
DA:149,0
DA:150,0
DA:151,0
DA:152,0
DA:154,0
DA:156,0
DA:157,0
DA:159,0
DA:160,0
DA:161,0
DA:163,0
DA:165,0
DA:166,0
DA:168,0
DA:169,0
DA:170,0
DA:172,0
DA:174,0
DA:175,0
DA:176,0
DA:177,0
DA:178,0
DA:180,0
DA:182,0
DA:183,0
DA:184,0
DA:185,0
DA:186,0
DA:188,0
DA:190,0
DA:191,0
DA:192,0
DA:193,0
DA:194,0
DA:196,0
DA:198,0
DA:199,0
DA:201,0
DA:202,0
DA:203,0
DA:205,0
DA:207,0
DA:208,0
DA:210,0
DA:211,0
DA:212,0
DA:214,0
DA:216,0
DA:217,0
DA:218,0
DA:219,0
DA:220,0
DA:222,0
DA:224,0
DA:225,0
DA:226,0
DA:227,0
DA:228,0
DA:230,0
DA:232,0
DA:233,0
DA:234,0
DA:235,0
DA:236,0
DA:238,0
DA:256,0
DA:258,0
DA:259,0
DA:260,0
DA:261,0
DA:262,0
DA:264,0
DA:266,0
DA:267,0
DA:268,0
DA:269,0
DA:270,0
DA:272,0
DA:274,0
DA:275,0
DA:276,0
DA:277,0
DA:278,0
DA:280,0
DA:282,0
DA:283,0
DA:284,0
DA:285,0
DA:286,0
DA:288,0
DA:290,0
DA:291,0
DA:292,0
DA:293,0
DA:294,0
DA:296,0
DA:298,0
DA:299,0
DA:301,0
DA:302,0
DA:303,0
DA:305,0
DA:307,0
DA:308,0
DA:310,0
DA:311,0
DA:312,0
DA:314,0
DA:316,0
DA:317,0
DA:318,0
DA:319,0
DA:320,0
DA:322,0
DA:324,0
DA:325,0
DA:326,0
DA:327,0
DA:328,0
DA:330,0
DA:332,0
DA:333,0
DA:334,0
DA:335,0
DA:336,0
DA:338,0
DA:340,0
DA:341,0
DA:343,0
DA:344,0
DA:345,0
DA:347,0
DA:349,0
DA:350,0
DA:352,0
DA:353,0
DA:354,0
DA:356,0
DA:358,0
DA:359,0
DA:360,0
DA:361,0
DA:362,0
DA:364,0
DA:366,0
DA:367,0
DA:368,0
DA:369,0
DA:370,0
DA:372,0
DA:374,0
DA:375,0
DA:376,0
DA:377,0
DA:378,0
DA:380,0
DA:382,0
DA:383,0
DA:385,0
DA:386,0
DA:387,0
DA:389,0
DA:391,0
DA:392,0
DA:394,0
DA:395,0
DA:396,0
DA:398,0
DA:400,0
DA:401,0
DA:402,0
DA:403,0
DA:404,0
DA:406,0
DA:408,0
DA:409,0
DA:410,0
DA:411,0
DA:412,0
DA:414,0
DA:416,0
DA:417,0
DA:418,0
DA:419,0
DA:420,0
DA:422,0
DA:424,0
DA:425,0
DA:427,0
DA:428,0
DA:429,0
DA:431,0
DA:433,0
DA:434,0
DA:436,0
DA:437,0
DA:438,0
DA:440,0
DA:442,0
DA:443,0
DA:444,0
DA:445,0
DA:446,0
DA:448,0
DA:450,0
DA:451,0
DA:452,0
DA:453,0
DA:454,0
DA:456,0
DA:458,0
DA:459,0
DA:460,0
DA:461,0
DA:462,0
LF:302
LH:0
end_of_record
TN:
SF:/home/runner/work/ad-rss-lib/ad-rss-lib/ad_rss_map_integration/impl/include/ad/rss/map/RssObjectData.hpp
FN:34,_ZN2ad3rss3map13RssObjectDataC2Ev
FN:34,_ZN2ad3rss3map13RssObjectDataD2Ev
FNDA:0,_ZN2ad3rss3map13RssObjectDataC2Ev
FNDA:0,_ZN2ad3rss3map13RssObjectDataD2Ev
FNF:2
FNH:0
DA:34,0
LF:1
LH:0
end_of_record
SF:/home/runner/work/ad-rss-lib/ad-rss-lib/ad_rss_map_integration/impl/include/ad/rss/map/RssSceneCreation.hpp
FN:53,_ZN2ad3rss3map16RssSceneCreationD2Ev
FNDA:0,_ZN2ad3rss3map16RssSceneCreationD2Ev
FNF:1
FNH:0
DA:53,0
LF:1
LH:0
end_of_record
SF:/home/runner/work/ad-rss-lib/ad-rss-lib/ad_rss_map_integration/impl/tests/RssSceneCreationTest.hpp
FN:25,_ZN20RssSceneCreationTestC2Ev
FN:25,_ZN20RssSceneCreationTestD2Ev
FN:25,_ZN20RssSceneCreationTestD0Ev
FN:47,_ZN20RssSceneCreationTest23getUnstructuredSettingsEv
FN:58,_ZN20RssSceneCreationTest21getEgoVehicleDynamicsEN2ad7physics5SpeedE
FN:80,_ZN20RssSceneCreationTest24getObjectVehicleDynamicsEN2ad7physics5SpeedE
FN:111,_ZN20RssSceneCreationTest7initMapEv
FN:145,_ZN20RssSceneCreationTest5SetUpEv
FN:153,_ZN20RssSceneCreationTest8TearDownEv
FN:157,_ZN20RssSceneCreationTest19initializeObjectGeoERKSt5tupleIJN2ad3map5point9LongitudeENS3_8LatitudeEdEERNS2_5match6ObjectE
FN:166,_ZN20RssSceneCreationTest19initializeObjectENUERKN2ad3map5point8ENUPointERKNS2_10ENUHeadingERNS1_5match6ObjectE
FN:189,_ZN20RssSceneCreationTest17checkSceneResultsERKN2ad3rss5world10WorldModelERKmRKSt6vectorISt5tupleIJNS1_9situation13SituationTypeEmmNS0_7physics5SpeedEEESaISE_EE
FN:206,_ZZN20RssSceneCreationTest17checkSceneResultsERKN2ad3rss5world10WorldModelERKmRKSt6vectorISt5tupleIJNS1_9situation13SituationTypeEmmNS0_7physics5SpeedEEESaISE_EEENUlRKSE_E_D2Ev
FN:206,_ZZN20RssSceneCreationTest17checkSceneResultsERKN2ad3rss5world10WorldModelERKmRKSt6vectorISt5tupleIJNS1_9situation13SituationTypeEmmNS0_7physics5SpeedEEESaISE_EEENUlRKSE_E_C2ERKSL_
FN:206,_ZZN20RssSceneCreationTest17checkSceneResultsERKN2ad3rss5world10WorldModelERKmRKSt6vectorISt5tupleIJNS1_9situation13SituationTypeEmmNS0_7physics5SpeedEEESaISE_EEENKUlRKSE_E_clESK_
FN:227,_ZN20RssSceneCreationTest15shortenEgoRouteERKSt5tupleIJN2ad3map5point9LongitudeENS3_8LatitudeEdEE
FN:240,_ZN20RssSceneCreationTest16performSceneTestERKSt5tupleIJN2ad3map5point9LongitudeENS3_8LatitudeEdEES8_RKSt6vectorIS0_IJNS1_3rss9situation13SituationTypeEmmNS1_7physics5SpeedEEESaISF_EE
FN:303,_ZN26RssSceneCreationTestTown01D0Ev
FN:303,_ZN26RssSceneCreationTestTown01C2Ev
FN:303,_ZN26RssSceneCreationTestTown01D2Ev
FN:305,_ZN26RssSceneCreationTestTown0112getMapToLoadEv
FN:310,_ZN26RssSceneCreationTestTown0120initializeEgoVehicleEv
FN:351,_ZN26RssSceneCreationTestTown0121locationSouthIncomingEv
FN:358,_ZN26RssSceneCreationTestTown0121locationSouthEnteringEv
FN:364,_ZN26RssSceneCreationTestTown0118locationSouth2EastEv
FN:370,_ZN26RssSceneCreationTestTown0119locationEastExitingEv
FN:376,_ZN26RssSceneCreationTestTown0120locationEastOutgoingEv
FN:466,_ZN29RssSceneCreationTestWithRouteD0Ev
FN:466,_ZN29RssSceneCreationTestWithRouteD2Ev
FN:466,_ZN29RssSceneCreationTestWithRouteC2Ev
FN:468,_ZN29RssSceneCreationTestWithRoute11getTestModeEv
FN:474,_ZN32RssSceneCreationTestWithoutRouteC2Ev
FN:474,_ZN32RssSceneCreationTestWithoutRouteD0Ev
FN:474,_ZN32RssSceneCreationTestWithoutRouteD2Ev
FN:476,_ZN32RssSceneCreationTestWithoutRoute11getTestModeEv
FNDA:0,_ZN20RssSceneCreationTestC2Ev
FNDA:0,_ZN20RssSceneCreationTestD2Ev
FNDA:0,_ZN20RssSceneCreationTestD0Ev
FNDA:0,_ZN20RssSceneCreationTest23getUnstructuredSettingsEv
FNDA:0,_ZN20RssSceneCreationTest21getEgoVehicleDynamicsEN2ad7physics5SpeedE
FNDA:0,_ZN20RssSceneCreationTest24getObjectVehicleDynamicsEN2ad7physics5SpeedE
FNDA:0,_ZN20RssSceneCreationTest7initMapEv
FNDA:0,_ZN20RssSceneCreationTest5SetUpEv
FNDA:0,_ZN20RssSceneCreationTest8TearDownEv
FNDA:0,_ZN20RssSceneCreationTest19initializeObjectGeoERKSt5tupleIJN2ad3map5point9LongitudeENS3_8LatitudeEdEERNS2_5match6ObjectE
FNDA:0,_ZN20RssSceneCreationTest19initializeObjectENUERKN2ad3map5point8ENUPointERKNS2_10ENUHeadingERNS1_5match6ObjectE
FNDA:0,_ZN20RssSceneCreationTest17checkSceneResultsERKN2ad3rss5world10WorldModelERKmRKSt6vectorISt5tupleIJNS1_9situation13SituationTypeEmmNS0_7physics5SpeedEEESaISE_EE
FNDA:0,_ZZN20RssSceneCreationTest17checkSceneResultsERKN2ad3rss5world10WorldModelERKmRKSt6vectorISt5tupleIJNS1_9situation13SituationTypeEmmNS0_7physics5SpeedEEESaISE_EEENUlRKSE_E_D2Ev
FNDA:0,_ZZN20RssSceneCreationTest17checkSceneResultsERKN2ad3rss5world10WorldModelERKmRKSt6vectorISt5tupleIJNS1_9situation13SituationTypeEmmNS0_7physics5SpeedEEESaISE_EEENUlRKSE_E_C2ERKSL_
FNDA:0,_ZZN20RssSceneCreationTest17checkSceneResultsERKN2ad3rss5world10WorldModelERKmRKSt6vectorISt5tupleIJNS1_9situation13SituationTypeEmmNS0_7physics5SpeedEEESaISE_EEENKUlRKSE_E_clESK_
FNDA:0,_ZN20RssSceneCreationTest15shortenEgoRouteERKSt5tupleIJN2ad3map5point9LongitudeENS3_8LatitudeEdEE
FNDA:0,_ZN20RssSceneCreationTest16performSceneTestERKSt5tupleIJN2ad3map5point9LongitudeENS3_8LatitudeEdEES8_RKSt6vectorIS0_IJNS1_3rss9situation13SituationTypeEmmNS1_7physics5SpeedEEESaISF_EE
FNDA:0,_ZN26RssSceneCreationTestTown01D0Ev
FNDA:0,_ZN26RssSceneCreationTestTown01C2Ev
FNDA:0,_ZN26RssSceneCreationTestTown01D2Ev
FNDA:0,_ZN26RssSceneCreationTestTown0112getMapToLoadEv
FNDA:0,_ZN26RssSceneCreationTestTown0120initializeEgoVehicleEv
FNDA:0,_ZN26RssSceneCreationTestTown0121locationSouthIncomingEv
FNDA:0,_ZN26RssSceneCreationTestTown0121locationSouthEnteringEv
FNDA:0,_ZN26RssSceneCreationTestTown0118locationSouth2EastEv
FNDA:0,_ZN26RssSceneCreationTestTown0119locationEastExitingEv
FNDA:0,_ZN26RssSceneCreationTestTown0120locationEastOutgoingEv
FNDA:0,_ZN29RssSceneCreationTestWithRouteD0Ev
FNDA:0,_ZN29RssSceneCreationTestWithRouteD2Ev
FNDA:0,_ZN29RssSceneCreationTestWithRouteC2Ev
FNDA:0,_ZN29RssSceneCreationTestWithRoute11getTestModeEv
FNDA:0,_ZN32RssSceneCreationTestWithoutRouteC2Ev
FNDA:0,_ZN32RssSceneCreationTestWithoutRouteD0Ev
FNDA:0,_ZN32RssSceneCreationTestWithoutRouteD2Ev
FNDA:0,_ZN32RssSceneCreationTestWithoutRoute11getTestModeEv
FNF:35
FNH:0
DA:25,0
DA:47,0
DA:49,0
DA:50,0
DA:51,0
DA:52,0
DA:53,0
DA:54,0
DA:55,0
DA:58,0
DA:61,0
DA:62,0
DA:63,0
DA:65,0
DA:66,0
DA:67,0
DA:68,0
DA:70,0
DA:72,0
DA:73,0
DA:75,0
DA:77,0
DA:80,0
DA:83,0
DA:84,0
DA:85,0
DA:87,0
DA:88,0
DA:89,0
DA:90,0
DA:92,0
DA:94,0
DA:95,0
DA:97,0
DA:99,0
DA:111,0
DA:115,0
DA:116,0
DA:118,0
DA:119,0
DA:123,0
DA:124,0
DA:127,0
DA:129,0
DA:130,0
DA:132,0
DA:136,0
DA:137,0
DA:139,0
DA:145,0
DA:149,0
DA:150,0
DA:151,0
DA:153,0
DA:155,0
DA:157,0
DA:159,0
DA:160,0
DA:161,0
DA:162,0
DA:163,0
DA:164,0
DA:166,0
DA:170,0
DA:171,0
DA:172,0
DA:173,0
DA:174,0
DA:175,0
DA:177,0
DA:179,0
DA:181,0
DA:183,0
DA:189,0
DA:193,0
DA:194,0
DA:196,0
DA:197,0
DA:199,0
DA:200,0
DA:201,0
DA:202,0
DA:206,0
DA:207,0
DA:208,0
DA:209,0
DA:210,0
DA:211,0
DA:212,0
DA:214,0
DA:218,0
DA:221,0
DA:222,0
DA:223,0
DA:224,0
DA:227,0
DA:229,0
DA:231,0
DA:233,0
DA:235,0
DA:236,0
DA:240,0
DA:244,0
DA:246,0
DA:247,0
DA:249,0
DA:250,0
DA:251,0
DA:252,0
DA:254,0
DA:256,0
DA:258,0
DA:259,0
DA:260,0
DA:262,0
DA:263,0
DA:266,0
DA:267,0
DA:268,0
DA:269,0
DA:270,0
DA:271,0
DA:272,0
DA:273,0
DA:275,0
DA:276,0
DA:277,0
DA:278,0
DA:279,0
DA:280,0
DA:281,0
DA:282,0
DA:284,0
DA:289,0
DA:291,0
DA:292,0
DA:293,0
DA:303,0
DA:305,0
DA:307,0
DA:310,0
DA:314,0
DA:316,0
DA:318,0
DA:319,0
DA:320,0
DA:325,0
DA:327,0
DA:329,0
DA:331,0
DA:332,0
DA:351,0
DA:355,0
DA:358,0
DA:361,0
DA:364,0
DA:367,0
DA:370,0
DA:373,0
DA:376,0
DA:380,0
DA:466,0
DA:468,0
DA:470,0
DA:474,0
DA:476,0
DA:478,0
LF:167
LH:0
end_of_record
SF:/home/runner/work/ad-rss-lib/ad-rss-lib/ad_rss_map_integration/impl/tests/RssSceneCreationTestEgoSouth2EastOtherSouth2East.cpp
FN:11,_ZN57RssSceneCreationTestWithRouteEgoSouth2EastOtherSouth2EastD2Ev
FN:11,_ZN57RssSceneCreationTestWithRouteEgoSouth2EastOtherSouth2EastD0Ev
FN:11,_ZN57RssSceneCreationTestWithRouteEgoSouth2EastOtherSouth2EastC2Ev
FN:28,_ZN68RssSceneCreationTestWithRouteEgoSouth2EastOtherSouth2East_e0_o0_TestD0Ev
FN:28,_ZN68RssSceneCreationTestWithRouteEgoSouth2EastOtherSouth2East_e0_o0_TestD2Ev
FN:28,_ZN68RssSceneCreationTestWithRouteEgoSouth2EastOtherSouth2East_e0_o0_TestC2Ev
FN:28,_ZN68RssSceneCreationTestWithRouteEgoSouth2EastOtherSouth2East_e0_o0_Test8TestBodyEv
FN:36,_ZN68RssSceneCreationTestWithRouteEgoSouth2EastOtherSouth2East_e0_o1_Test8TestBodyEv
FN:36,_ZN68RssSceneCreationTestWithRouteEgoSouth2EastOtherSouth2East_e0_o1_TestD2Ev
FN:36,_ZN68RssSceneCreationTestWithRouteEgoSouth2EastOtherSouth2East_e0_o1_TestD0Ev
FN:36,_ZN68RssSceneCreationTestWithRouteEgoSouth2EastOtherSouth2East_e0_o1_TestC2Ev
FN:44,_ZN68RssSceneCreationTestWithRouteEgoSouth2EastOtherSouth2East_e0_o2_TestD0Ev
FN:44,_ZN68RssSceneCreationTestWithRouteEgoSouth2EastOtherSouth2East_e0_o2_Test8TestBodyEv
FN:44,_ZN68RssSceneCreationTestWithRouteEgoSouth2EastOtherSouth2East_e0_o2_TestD2Ev
FN:44,_ZN68RssSceneCreationTestWithRouteEgoSouth2EastOtherSouth2East_e0_o2_TestC2Ev
FN:52,_ZN68RssSceneCreationTestWithRouteEgoSouth2EastOtherSouth2East_e0_o3_Test8TestBodyEv
FN:52,_ZN68RssSceneCreationTestWithRouteEgoSouth2EastOtherSouth2East_e0_o3_TestC2Ev
FN:52,_ZN68RssSceneCreationTestWithRouteEgoSouth2EastOtherSouth2East_e0_o3_TestD0Ev
FN:52,_ZN68RssSceneCreationTestWithRouteEgoSouth2EastOtherSouth2East_e0_o3_TestD2Ev
FN:60,_ZN68RssSceneCreationTestWithRouteEgoSouth2EastOtherSouth2East_e0_o4_Test8TestBodyEv
FN:60,_ZN68RssSceneCreationTestWithRouteEgoSouth2EastOtherSouth2East_e0_o4_TestD2Ev
FN:60,_ZN68RssSceneCreationTestWithRouteEgoSouth2EastOtherSouth2East_e0_o4_TestD0Ev
FN:60,_ZN68RssSceneCreationTestWithRouteEgoSouth2EastOtherSouth2East_e0_o4_TestC2Ev
FN:68,_ZN68RssSceneCreationTestWithRouteEgoSouth2EastOtherSouth2East_e1_o0_TestD2Ev
FN:68,_ZN68RssSceneCreationTestWithRouteEgoSouth2EastOtherSouth2East_e1_o0_TestC2Ev
FN:68,_ZN68RssSceneCreationTestWithRouteEgoSouth2EastOtherSouth2East_e1_o0_TestD0Ev
FN:68,_ZN68RssSceneCreationTestWithRouteEgoSouth2EastOtherSouth2East_e1_o0_Test8TestBodyEv
FN:77,_ZN68RssSceneCreationTestWithRouteEgoSouth2EastOtherSouth2East_e1_o1_TestC2Ev
FN:77,_ZN68RssSceneCreationTestWithRouteEgoSouth2EastOtherSouth2East_e1_o1_Test8TestBodyEv
FN:77,_ZN68RssSceneCreationTestWithRouteEgoSouth2EastOtherSouth2East_e1_o1_TestD2Ev
FN:77,_ZN68RssSceneCreationTestWithRouteEgoSouth2EastOtherSouth2East_e1_o1_TestD0Ev
FN:86,_ZN68RssSceneCreationTestWithRouteEgoSouth2EastOtherSouth2East_e1_o2_Test8TestBodyEv
FN:86,_ZN68RssSceneCreationTestWithRouteEgoSouth2EastOtherSouth2East_e1_o2_TestD0Ev
FN:86,_ZN68RssSceneCreationTestWithRouteEgoSouth2EastOtherSouth2East_e1_o2_TestC2Ev
FN:86,_ZN68RssSceneCreationTestWithRouteEgoSouth2EastOtherSouth2East_e1_o2_TestD2Ev
FN:94,_ZN68RssSceneCreationTestWithRouteEgoSouth2EastOtherSouth2East_e1_o3_Test8TestBodyEv
FN:94,_ZN68RssSceneCreationTestWithRouteEgoSouth2EastOtherSouth2East_e1_o3_TestC2Ev
FN:94,_ZN68RssSceneCreationTestWithRouteEgoSouth2EastOtherSouth2East_e1_o3_TestD2Ev
FN:94,_ZN68RssSceneCreationTestWithRouteEgoSouth2EastOtherSouth2East_e1_o3_TestD0Ev
FN:102,_ZN68RssSceneCreationTestWithRouteEgoSouth2EastOtherSouth2East_e1_o4_TestC2Ev
FN:102,_ZN68RssSceneCreationTestWithRouteEgoSouth2EastOtherSouth2East_e1_o4_Test8TestBodyEv
FN:102,_ZN68RssSceneCreationTestWithRouteEgoSouth2EastOtherSouth2East_e1_o4_TestD2Ev
FN:102,_ZN68RssSceneCreationTestWithRouteEgoSouth2EastOtherSouth2East_e1_o4_TestD0Ev
FN:110,_ZN68RssSceneCreationTestWithRouteEgoSouth2EastOtherSouth2East_e2_o0_TestC2Ev
FN:110,_ZN68RssSceneCreationTestWithRouteEgoSouth2EastOtherSouth2East_e2_o0_TestD0Ev
FN:110,_ZN68RssSceneCreationTestWithRouteEgoSouth2EastOtherSouth2East_e2_o0_Test8TestBodyEv
FN:110,_ZN68RssSceneCreationTestWithRouteEgoSouth2EastOtherSouth2East_e2_o0_TestD2Ev
FN:119,_ZN68RssSceneCreationTestWithRouteEgoSouth2EastOtherSouth2East_e2_o1_Test8TestBodyEv
FN:119,_ZN68RssSceneCreationTestWithRouteEgoSouth2EastOtherSouth2East_e2_o1_TestD0Ev
FN:119,_ZN68RssSceneCreationTestWithRouteEgoSouth2EastOtherSouth2East_e2_o1_TestC2Ev
FN:119,_ZN68RssSceneCreationTestWithRouteEgoSouth2EastOtherSouth2East_e2_o1_TestD2Ev
FN:128,_ZN68RssSceneCreationTestWithRouteEgoSouth2EastOtherSouth2East_e2_o2_Test8TestBodyEv
FN:128,_ZN68RssSceneCreationTestWithRouteEgoSouth2EastOtherSouth2East_e2_o2_TestC2Ev
FN:128,_ZN68RssSceneCreationTestWithRouteEgoSouth2EastOtherSouth2East_e2_o2_TestD2Ev
FN:128,_ZN68RssSceneCreationTestWithRouteEgoSouth2EastOtherSouth2East_e2_o2_TestD0Ev
FN:137,_ZN68RssSceneCreationTestWithRouteEgoSouth2EastOtherSouth2East_e2_o3_TestD0Ev
FN:137,_ZN68RssSceneCreationTestWithRouteEgoSouth2EastOtherSouth2East_e2_o3_TestD2Ev
FN:137,_ZN68RssSceneCreationTestWithRouteEgoSouth2EastOtherSouth2East_e2_o3_Test8TestBodyEv
FN:137,_ZN68RssSceneCreationTestWithRouteEgoSouth2EastOtherSouth2East_e2_o3_TestC2Ev
FN:145,_ZN68RssSceneCreationTestWithRouteEgoSouth2EastOtherSouth2East_e2_o4_Test8TestBodyEv
FN:145,_ZN68RssSceneCreationTestWithRouteEgoSouth2EastOtherSouth2East_e2_o4_TestD2Ev
FN:145,_ZN68RssSceneCreationTestWithRouteEgoSouth2EastOtherSouth2East_e2_o4_TestC2Ev
FN:145,_ZN68RssSceneCreationTestWithRouteEgoSouth2EastOtherSouth2East_e2_o4_TestD0Ev
FN:153,_ZN68RssSceneCreationTestWithRouteEgoSouth2EastOtherSouth2East_e3_o0_TestD2Ev
FN:153,_ZN68RssSceneCreationTestWithRouteEgoSouth2EastOtherSouth2East_e3_o0_Test8TestBodyEv
FN:153,_ZN68RssSceneCreationTestWithRouteEgoSouth2EastOtherSouth2East_e3_o0_TestD0Ev
FN:153,_ZN68RssSceneCreationTestWithRouteEgoSouth2EastOtherSouth2East_e3_o0_TestC2Ev
FN:162,_ZN68RssSceneCreationTestWithRouteEgoSouth2EastOtherSouth2East_e3_o1_TestC2Ev
FN:162,_ZN68RssSceneCreationTestWithRouteEgoSouth2EastOtherSouth2East_e3_o1_TestD0Ev
FN:162,_ZN68RssSceneCreationTestWithRouteEgoSouth2EastOtherSouth2East_e3_o1_Test8TestBodyEv
FN:162,_ZN68RssSceneCreationTestWithRouteEgoSouth2EastOtherSouth2East_e3_o1_TestD2Ev
FN:171,_ZN68RssSceneCreationTestWithRouteEgoSouth2EastOtherSouth2East_e3_o2_TestC2Ev
FN:171,_ZN68RssSceneCreationTestWithRouteEgoSouth2EastOtherSouth2East_e3_o2_TestD2Ev
FN:171,_ZN68RssSceneCreationTestWithRouteEgoSouth2EastOtherSouth2East_e3_o2_Test8TestBodyEv
FN:171,_ZN68RssSceneCreationTestWithRouteEgoSouth2EastOtherSouth2East_e3_o2_TestD0Ev
FN:180,_ZN68RssSceneCreationTestWithRouteEgoSouth2EastOtherSouth2East_e3_o3_Test8TestBodyEv
FN:180,_ZN68RssSceneCreationTestWithRouteEgoSouth2EastOtherSouth2East_e3_o3_TestD2Ev
FN:180,_ZN68RssSceneCreationTestWithRouteEgoSouth2EastOtherSouth2East_e3_o3_TestC2Ev
FN:180,_ZN68RssSceneCreationTestWithRouteEgoSouth2EastOtherSouth2East_e3_o3_TestD0Ev
FN:189,_ZN68RssSceneCreationTestWithRouteEgoSouth2EastOtherSouth2East_e3_o4_Test8TestBodyEv
FN:189,_ZN68RssSceneCreationTestWithRouteEgoSouth2EastOtherSouth2East_e3_o4_TestC2Ev
FN:189,_ZN68RssSceneCreationTestWithRouteEgoSouth2EastOtherSouth2East_e3_o4_TestD2Ev
FN:189,_ZN68RssSceneCreationTestWithRouteEgoSouth2EastOtherSouth2East_e3_o4_TestD0Ev
FN:197,_ZN68RssSceneCreationTestWithRouteEgoSouth2EastOtherSouth2East_e4_o0_TestD2Ev
FN:197,_ZN68RssSceneCreationTestWithRouteEgoSouth2EastOtherSouth2East_e4_o0_Test8TestBodyEv
FN:197,_ZN68RssSceneCreationTestWithRouteEgoSouth2EastOtherSouth2East_e4_o0_TestD0Ev
FN:197,_ZN68RssSceneCreationTestWithRouteEgoSouth2EastOtherSouth2East_e4_o0_TestC2Ev
FN:206,_ZN68RssSceneCreationTestWithRouteEgoSouth2EastOtherSouth2East_e4_o1_TestD2Ev
FN:206,_ZN68RssSceneCreationTestWithRouteEgoSouth2EastOtherSouth2East_e4_o1_Test8TestBodyEv
FN:206,_ZN68RssSceneCreationTestWithRouteEgoSouth2EastOtherSouth2East_e4_o1_TestC2Ev
FN:206,_ZN68RssSceneCreationTestWithRouteEgoSouth2EastOtherSouth2East_e4_o1_TestD0Ev
FN:215,_ZN68RssSceneCreationTestWithRouteEgoSouth2EastOtherSouth2East_e4_o2_TestD2Ev
FN:215,_ZN68RssSceneCreationTestWithRouteEgoSouth2EastOtherSouth2East_e4_o2_Test8TestBodyEv
FN:215,_ZN68RssSceneCreationTestWithRouteEgoSouth2EastOtherSouth2East_e4_o2_TestC2Ev
FN:215,_ZN68RssSceneCreationTestWithRouteEgoSouth2EastOtherSouth2East_e4_o2_TestD0Ev
FN:224,_ZN68RssSceneCreationTestWithRouteEgoSouth2EastOtherSouth2East_e4_o3_TestC2Ev
FN:224,_ZN68RssSceneCreationTestWithRouteEgoSouth2EastOtherSouth2East_e4_o3_TestD0Ev
FN:224,_ZN68RssSceneCreationTestWithRouteEgoSouth2EastOtherSouth2East_e4_o3_Test8TestBodyEv
FN:224,_ZN68RssSceneCreationTestWithRouteEgoSouth2EastOtherSouth2East_e4_o3_TestD2Ev
FN:233,_ZN68RssSceneCreationTestWithRouteEgoSouth2EastOtherSouth2East_e4_o4_TestC2Ev
FN:233,_ZN68RssSceneCreationTestWithRouteEgoSouth2EastOtherSouth2East_e4_o4_TestD2Ev
FN:233,_ZN68RssSceneCreationTestWithRouteEgoSouth2EastOtherSouth2East_e4_o4_TestD0Ev
FN:233,_ZN68RssSceneCreationTestWithRouteEgoSouth2EastOtherSouth2East_e4_o4_Test8TestBodyEv
FN:242,_ZN60RssSceneCreationTestWithoutRouteEgoSouth2EastOtherSouth2EastD2Ev
FN:242,_ZN60RssSceneCreationTestWithoutRouteEgoSouth2EastOtherSouth2EastD0Ev
FN:242,_ZN60RssSceneCreationTestWithoutRouteEgoSouth2EastOtherSouth2EastC2Ev
FN:259,_ZN71RssSceneCreationTestWithoutRouteEgoSouth2EastOtherSouth2East_e0_o0_TestD0Ev
FN:259,_ZN71RssSceneCreationTestWithoutRouteEgoSouth2EastOtherSouth2East_e0_o0_Test8TestBodyEv
FN:259,_ZN71RssSceneCreationTestWithoutRouteEgoSouth2EastOtherSouth2East_e0_o0_TestC2Ev
FN:259,_ZN71RssSceneCreationTestWithoutRouteEgoSouth2EastOtherSouth2East_e0_o0_TestD2Ev
FN:267,_ZN71RssSceneCreationTestWithoutRouteEgoSouth2EastOtherSouth2East_e0_o1_Test8TestBodyEv
FN:267,_ZN71RssSceneCreationTestWithoutRouteEgoSouth2EastOtherSouth2East_e0_o1_TestD2Ev
FN:267,_ZN71RssSceneCreationTestWithoutRouteEgoSouth2EastOtherSouth2East_e0_o1_TestC2Ev
FN:267,_ZN71RssSceneCreationTestWithoutRouteEgoSouth2EastOtherSouth2East_e0_o1_TestD0Ev
FN:275,_ZN71RssSceneCreationTestWithoutRouteEgoSouth2EastOtherSouth2East_e0_o2_TestC2Ev
FN:275,_ZN71RssSceneCreationTestWithoutRouteEgoSouth2EastOtherSouth2East_e0_o2_TestD2Ev
FN:275,_ZN71RssSceneCreationTestWithoutRouteEgoSouth2EastOtherSouth2East_e0_o2_TestD0Ev
FN:275,_ZN71RssSceneCreationTestWithoutRouteEgoSouth2EastOtherSouth2East_e0_o2_Test8TestBodyEv
FN:283,_ZN71RssSceneCreationTestWithoutRouteEgoSouth2EastOtherSouth2East_e0_o3_Test8TestBodyEv
FN:283,_ZN71RssSceneCreationTestWithoutRouteEgoSouth2EastOtherSouth2East_e0_o3_TestC2Ev
FN:283,_ZN71RssSceneCreationTestWithoutRouteEgoSouth2EastOtherSouth2East_e0_o3_TestD0Ev
FN:283,_ZN71RssSceneCreationTestWithoutRouteEgoSouth2EastOtherSouth2East_e0_o3_TestD2Ev
FN:291,_ZN71RssSceneCreationTestWithoutRouteEgoSouth2EastOtherSouth2East_e0_o4_TestD0Ev
FN:291,_ZN71RssSceneCreationTestWithoutRouteEgoSouth2EastOtherSouth2East_e0_o4_TestD2Ev
FN:291,_ZN71RssSceneCreationTestWithoutRouteEgoSouth2EastOtherSouth2East_e0_o4_Test8TestBodyEv
FN:291,_ZN71RssSceneCreationTestWithoutRouteEgoSouth2EastOtherSouth2East_e0_o4_TestC2Ev
FN:299,_ZN71RssSceneCreationTestWithoutRouteEgoSouth2EastOtherSouth2East_e1_o0_Test8TestBodyEv
FN:299,_ZN71RssSceneCreationTestWithoutRouteEgoSouth2EastOtherSouth2East_e1_o0_TestC2Ev
FN:299,_ZN71RssSceneCreationTestWithoutRouteEgoSouth2EastOtherSouth2East_e1_o0_TestD2Ev
FN:299,_ZN71RssSceneCreationTestWithoutRouteEgoSouth2EastOtherSouth2East_e1_o0_TestD0Ev
FN:308,_ZN71RssSceneCreationTestWithoutRouteEgoSouth2EastOtherSouth2East_e1_o1_TestD0Ev
FN:308,_ZN71RssSceneCreationTestWithoutRouteEgoSouth2EastOtherSouth2East_e1_o1_TestC2Ev
FN:308,_ZN71RssSceneCreationTestWithoutRouteEgoSouth2EastOtherSouth2East_e1_o1_TestD2Ev
FN:308,_ZN71RssSceneCreationTestWithoutRouteEgoSouth2EastOtherSouth2East_e1_o1_Test8TestBodyEv
FN:317,_ZN71RssSceneCreationTestWithoutRouteEgoSouth2EastOtherSouth2East_e1_o2_Test8TestBodyEv
FN:317,_ZN71RssSceneCreationTestWithoutRouteEgoSouth2EastOtherSouth2East_e1_o2_TestD2Ev
FN:317,_ZN71RssSceneCreationTestWithoutRouteEgoSouth2EastOtherSouth2East_e1_o2_TestC2Ev
FN:317,_ZN71RssSceneCreationTestWithoutRouteEgoSouth2EastOtherSouth2East_e1_o2_TestD0Ev
FN:325,_ZN71RssSceneCreationTestWithoutRouteEgoSouth2EastOtherSouth2East_e1_o3_Test8TestBodyEv
FN:325,_ZN71RssSceneCreationTestWithoutRouteEgoSouth2EastOtherSouth2East_e1_o3_TestD0Ev
FN:325,_ZN71RssSceneCreationTestWithoutRouteEgoSouth2EastOtherSouth2East_e1_o3_TestD2Ev
FN:325,_ZN71RssSceneCreationTestWithoutRouteEgoSouth2EastOtherSouth2East_e1_o3_TestC2Ev
FN:333,_ZN71RssSceneCreationTestWithoutRouteEgoSouth2EastOtherSouth2East_e1_o4_Test8TestBodyEv
FN:333,_ZN71RssSceneCreationTestWithoutRouteEgoSouth2EastOtherSouth2East_e1_o4_TestD0Ev
FN:333,_ZN71RssSceneCreationTestWithoutRouteEgoSouth2EastOtherSouth2East_e1_o4_TestD2Ev
FN:333,_ZN71RssSceneCreationTestWithoutRouteEgoSouth2EastOtherSouth2East_e1_o4_TestC2Ev
FN:341,_ZN71RssSceneCreationTestWithoutRouteEgoSouth2EastOtherSouth2East_e2_o0_TestD2Ev
FN:341,_ZN71RssSceneCreationTestWithoutRouteEgoSouth2EastOtherSouth2East_e2_o0_TestC2Ev
FN:341,_ZN71RssSceneCreationTestWithoutRouteEgoSouth2EastOtherSouth2East_e2_o0_Test8TestBodyEv
FN:341,_ZN71RssSceneCreationTestWithoutRouteEgoSouth2EastOtherSouth2East_e2_o0_TestD0Ev
FN:350,_ZN71RssSceneCreationTestWithoutRouteEgoSouth2EastOtherSouth2East_e2_o1_TestD2Ev
FN:350,_ZN71RssSceneCreationTestWithoutRouteEgoSouth2EastOtherSouth2East_e2_o1_TestD0Ev
FN:350,_ZN71RssSceneCreationTestWithoutRouteEgoSouth2EastOtherSouth2East_e2_o1_Test8TestBodyEv
FN:350,_ZN71RssSceneCreationTestWithoutRouteEgoSouth2EastOtherSouth2East_e2_o1_TestC2Ev
FN:359,_ZN71RssSceneCreationTestWithoutRouteEgoSouth2EastOtherSouth2East_e2_o2_Test8TestBodyEv
FN:359,_ZN71RssSceneCreationTestWithoutRouteEgoSouth2EastOtherSouth2East_e2_o2_TestC2Ev
FN:359,_ZN71RssSceneCreationTestWithoutRouteEgoSouth2EastOtherSouth2East_e2_o2_TestD0Ev
FN:359,_ZN71RssSceneCreationTestWithoutRouteEgoSouth2EastOtherSouth2East_e2_o2_TestD2Ev
FN:368,_ZN71RssSceneCreationTestWithoutRouteEgoSouth2EastOtherSouth2East_e2_o3_TestC2Ev
FN:368,_ZN71RssSceneCreationTestWithoutRouteEgoSouth2EastOtherSouth2East_e2_o3_TestD2Ev
FN:368,_ZN71RssSceneCreationTestWithoutRouteEgoSouth2EastOtherSouth2East_e2_o3_TestD0Ev
FN:368,_ZN71RssSceneCreationTestWithoutRouteEgoSouth2EastOtherSouth2East_e2_o3_Test8TestBodyEv
FN:376,_ZN71RssSceneCreationTestWithoutRouteEgoSouth2EastOtherSouth2East_e2_o4_Test8TestBodyEv
FN:376,_ZN71RssSceneCreationTestWithoutRouteEgoSouth2EastOtherSouth2East_e2_o4_TestD2Ev
FN:376,_ZN71RssSceneCreationTestWithoutRouteEgoSouth2EastOtherSouth2East_e2_o4_TestC2Ev
FN:376,_ZN71RssSceneCreationTestWithoutRouteEgoSouth2EastOtherSouth2East_e2_o4_TestD0Ev
FN:384,_ZN71RssSceneCreationTestWithoutRouteEgoSouth2EastOtherSouth2East_e3_o0_TestD0Ev
FN:384,_ZN71RssSceneCreationTestWithoutRouteEgoSouth2EastOtherSouth2East_e3_o0_TestD2Ev
FN:384,_ZN71RssSceneCreationTestWithoutRouteEgoSouth2EastOtherSouth2East_e3_o0_Test8TestBodyEv
FN:384,_ZN71RssSceneCreationTestWithoutRouteEgoSouth2EastOtherSouth2East_e3_o0_TestC2Ev
FN:393,_ZN71RssSceneCreationTestWithoutRouteEgoSouth2EastOtherSouth2East_e3_o1_TestC2Ev
FN:393,_ZN71RssSceneCreationTestWithoutRouteEgoSouth2EastOtherSouth2East_e3_o1_TestD0Ev
FN:393,_ZN71RssSceneCreationTestWithoutRouteEgoSouth2EastOtherSouth2East_e3_o1_Test8TestBodyEv
FN:393,_ZN71RssSceneCreationTestWithoutRouteEgoSouth2EastOtherSouth2East_e3_o1_TestD2Ev
FN:402,_ZN71RssSceneCreationTestWithoutRouteEgoSouth2EastOtherSouth2East_e3_o2_Test8TestBodyEv
FN:402,_ZN71RssSceneCreationTestWithoutRouteEgoSouth2EastOtherSouth2East_e3_o2_TestC2Ev
FN:402,_ZN71RssSceneCreationTestWithoutRouteEgoSouth2EastOtherSouth2East_e3_o2_TestD2Ev
FN:402,_ZN71RssSceneCreationTestWithoutRouteEgoSouth2EastOtherSouth2East_e3_o2_TestD0Ev
FN:411,_ZN71RssSceneCreationTestWithoutRouteEgoSouth2EastOtherSouth2East_e3_o3_TestD2Ev
FN:411,_ZN71RssSceneCreationTestWithoutRouteEgoSouth2EastOtherSouth2East_e3_o3_TestD0Ev
FN:411,_ZN71RssSceneCreationTestWithoutRouteEgoSouth2EastOtherSouth2East_e3_o3_Test8TestBodyEv
FN:411,_ZN71RssSceneCreationTestWithoutRouteEgoSouth2EastOtherSouth2East_e3_o3_TestC2Ev
FN:420,_ZN71RssSceneCreationTestWithoutRouteEgoSouth2EastOtherSouth2East_e3_o4_Test8TestBodyEv
FN:420,_ZN71RssSceneCreationTestWithoutRouteEgoSouth2EastOtherSouth2East_e3_o4_TestD0Ev
FN:420,_ZN71RssSceneCreationTestWithoutRouteEgoSouth2EastOtherSouth2East_e3_o4_TestD2Ev
FN:420,_ZN71RssSceneCreationTestWithoutRouteEgoSouth2EastOtherSouth2East_e3_o4_TestC2Ev
FN:428,_ZN71RssSceneCreationTestWithoutRouteEgoSouth2EastOtherSouth2East_e4_o0_Test8TestBodyEv
FN:428,_ZN71RssSceneCreationTestWithoutRouteEgoSouth2EastOtherSouth2East_e4_o0_TestD0Ev
FN:428,_ZN71RssSceneCreationTestWithoutRouteEgoSouth2EastOtherSouth2East_e4_o0_TestD2Ev
FN:428,_ZN71RssSceneCreationTestWithoutRouteEgoSouth2EastOtherSouth2East_e4_o0_TestC2Ev
FN:437,_ZN71RssSceneCreationTestWithoutRouteEgoSouth2EastOtherSouth2East_e4_o1_TestC2Ev
FN:437,_ZN71RssSceneCreationTestWithoutRouteEgoSouth2EastOtherSouth2East_e4_o1_TestD0Ev
FN:437,_ZN71RssSceneCreationTestWithoutRouteEgoSouth2EastOtherSouth2East_e4_o1_TestD2Ev
FN:437,_ZN71RssSceneCreationTestWithoutRouteEgoSouth2EastOtherSouth2East_e4_o1_Test8TestBodyEv
FN:446,_ZN71RssSceneCreationTestWithoutRouteEgoSouth2EastOtherSouth2East_e4_o2_TestD2Ev
FN:446,_ZN71RssSceneCreationTestWithoutRouteEgoSouth2EastOtherSouth2East_e4_o2_TestD0Ev
FN:446,_ZN71RssSceneCreationTestWithoutRouteEgoSouth2EastOtherSouth2East_e4_o2_TestC2Ev
FN:446,_ZN71RssSceneCreationTestWithoutRouteEgoSouth2EastOtherSouth2East_e4_o2_Test8TestBodyEv
FN:455,_ZN71RssSceneCreationTestWithoutRouteEgoSouth2EastOtherSouth2East_e4_o3_TestC2Ev
FN:455,_ZN71RssSceneCreationTestWithoutRouteEgoSouth2EastOtherSouth2East_e4_o3_TestD2Ev
FN:455,_ZN71RssSceneCreationTestWithoutRouteEgoSouth2EastOtherSouth2East_e4_o3_Test8TestBodyEv
FN:455,_ZN71RssSceneCreationTestWithoutRouteEgoSouth2EastOtherSouth2East_e4_o3_TestD0Ev
FN:464,_ZN71RssSceneCreationTestWithoutRouteEgoSouth2EastOtherSouth2East_e4_o4_Test8TestBodyEv
FN:464,_ZN71RssSceneCreationTestWithoutRouteEgoSouth2EastOtherSouth2East_e4_o4_TestD0Ev
FN:464,_ZN71RssSceneCreationTestWithoutRouteEgoSouth2EastOtherSouth2East_e4_o4_TestC2Ev
FN:464,_ZN71RssSceneCreationTestWithoutRouteEgoSouth2EastOtherSouth2East_e4_o4_TestD2Ev
FN:471,_Z41__static_initialization_and_destruction_0ii
FN:471,_GLOBAL__sub_I__ZN68RssSceneCreationTestWithRouteEgoSouth2EastOtherSouth2East_e0_o0_Test10test_info_E
FNDA:0,_ZN57RssSceneCreationTestWithRouteEgoSouth2EastOtherSouth2EastD2Ev
FNDA:0,_ZN57RssSceneCreationTestWithRouteEgoSouth2EastOtherSouth2EastD0Ev
FNDA:0,_ZN57RssSceneCreationTestWithRouteEgoSouth2EastOtherSouth2EastC2Ev
FNDA:0,_ZN68RssSceneCreationTestWithRouteEgoSouth2EastOtherSouth2East_e0_o0_TestD0Ev
FNDA:0,_ZN68RssSceneCreationTestWithRouteEgoSouth2EastOtherSouth2East_e0_o0_TestD2Ev
FNDA:0,_ZN68RssSceneCreationTestWithRouteEgoSouth2EastOtherSouth2East_e0_o0_TestC2Ev
FNDA:0,_ZN68RssSceneCreationTestWithRouteEgoSouth2EastOtherSouth2East_e0_o0_Test8TestBodyEv
FNDA:0,_ZN68RssSceneCreationTestWithRouteEgoSouth2EastOtherSouth2East_e0_o1_Test8TestBodyEv
FNDA:0,_ZN68RssSceneCreationTestWithRouteEgoSouth2EastOtherSouth2East_e0_o1_TestD2Ev
FNDA:0,_ZN68RssSceneCreationTestWithRouteEgoSouth2EastOtherSouth2East_e0_o1_TestD0Ev
FNDA:0,_ZN68RssSceneCreationTestWithRouteEgoSouth2EastOtherSouth2East_e0_o1_TestC2Ev
FNDA:0,_ZN68RssSceneCreationTestWithRouteEgoSouth2EastOtherSouth2East_e0_o2_TestD0Ev
FNDA:0,_ZN68RssSceneCreationTestWithRouteEgoSouth2EastOtherSouth2East_e0_o2_Test8TestBodyEv
FNDA:0,_ZN68RssSceneCreationTestWithRouteEgoSouth2EastOtherSouth2East_e0_o2_TestD2Ev
FNDA:0,_ZN68RssSceneCreationTestWithRouteEgoSouth2EastOtherSouth2East_e0_o2_TestC2Ev
FNDA:0,_ZN68RssSceneCreationTestWithRouteEgoSouth2EastOtherSouth2East_e0_o3_Test8TestBodyEv
FNDA:0,_ZN68RssSceneCreationTestWithRouteEgoSouth2EastOtherSouth2East_e0_o3_TestC2Ev
FNDA:0,_ZN68RssSceneCreationTestWithRouteEgoSouth2EastOtherSouth2East_e0_o3_TestD0Ev
FNDA:0,_ZN68RssSceneCreationTestWithRouteEgoSouth2EastOtherSouth2East_e0_o3_TestD2Ev
FNDA:0,_ZN68RssSceneCreationTestWithRouteEgoSouth2EastOtherSouth2East_e0_o4_Test8TestBodyEv
FNDA:0,_ZN68RssSceneCreationTestWithRouteEgoSouth2EastOtherSouth2East_e0_o4_TestD2Ev
FNDA:0,_ZN68RssSceneCreationTestWithRouteEgoSouth2EastOtherSouth2East_e0_o4_TestD0Ev
FNDA:0,_ZN68RssSceneCreationTestWithRouteEgoSouth2EastOtherSouth2East_e0_o4_TestC2Ev
FNDA:0,_ZN68RssSceneCreationTestWithRouteEgoSouth2EastOtherSouth2East_e1_o0_TestD2Ev
FNDA:0,_ZN68RssSceneCreationTestWithRouteEgoSouth2EastOtherSouth2East_e1_o0_TestC2Ev
FNDA:0,_ZN68RssSceneCreationTestWithRouteEgoSouth2EastOtherSouth2East_e1_o0_TestD0Ev
FNDA:0,_ZN68RssSceneCreationTestWithRouteEgoSouth2EastOtherSouth2East_e1_o0_Test8TestBodyEv
FNDA:0,_ZN68RssSceneCreationTestWithRouteEgoSouth2EastOtherSouth2East_e1_o1_TestC2Ev
FNDA:0,_ZN68RssSceneCreationTestWithRouteEgoSouth2EastOtherSouth2East_e1_o1_Test8TestBodyEv
FNDA:0,_ZN68RssSceneCreationTestWithRouteEgoSouth2EastOtherSouth2East_e1_o1_TestD2Ev
FNDA:0,_ZN68RssSceneCreationTestWithRouteEgoSouth2EastOtherSouth2East_e1_o1_TestD0Ev
FNDA:0,_ZN68RssSceneCreationTestWithRouteEgoSouth2EastOtherSouth2East_e1_o2_Test8TestBodyEv
FNDA:0,_ZN68RssSceneCreationTestWithRouteEgoSouth2EastOtherSouth2East_e1_o2_TestD0Ev
FNDA:0,_ZN68RssSceneCreationTestWithRouteEgoSouth2EastOtherSouth2East_e1_o2_TestC2Ev
FNDA:0,_ZN68RssSceneCreationTestWithRouteEgoSouth2EastOtherSouth2East_e1_o2_TestD2Ev
FNDA:0,_ZN68RssSceneCreationTestWithRouteEgoSouth2EastOtherSouth2East_e1_o3_Test8TestBodyEv
FNDA:0,_ZN68RssSceneCreationTestWithRouteEgoSouth2EastOtherSouth2East_e1_o3_TestC2Ev
FNDA:0,_ZN68RssSceneCreationTestWithRouteEgoSouth2EastOtherSouth2East_e1_o3_TestD2Ev
FNDA:0,_ZN68RssSceneCreationTestWithRouteEgoSouth2EastOtherSouth2East_e1_o3_TestD0Ev
FNDA:0,_ZN68RssSceneCreationTestWithRouteEgoSouth2EastOtherSouth2East_e1_o4_TestC2Ev
FNDA:0,_ZN68RssSceneCreationTestWithRouteEgoSouth2EastOtherSouth2East_e1_o4_Test8TestBodyEv
FNDA:0,_ZN68RssSceneCreationTestWithRouteEgoSouth2EastOtherSouth2East_e1_o4_TestD2Ev
FNDA:0,_ZN68RssSceneCreationTestWithRouteEgoSouth2EastOtherSouth2East_e1_o4_TestD0Ev
FNDA:0,_ZN68RssSceneCreationTestWithRouteEgoSouth2EastOtherSouth2East_e2_o0_TestC2Ev
FNDA:0,_ZN68RssSceneCreationTestWithRouteEgoSouth2EastOtherSouth2East_e2_o0_TestD0Ev
FNDA:0,_ZN68RssSceneCreationTestWithRouteEgoSouth2EastOtherSouth2East_e2_o0_Test8TestBodyEv
FNDA:0,_ZN68RssSceneCreationTestWithRouteEgoSouth2EastOtherSouth2East_e2_o0_TestD2Ev
FNDA:0,_ZN68RssSceneCreationTestWithRouteEgoSouth2EastOtherSouth2East_e2_o1_Test8TestBodyEv
FNDA:0,_ZN68RssSceneCreationTestWithRouteEgoSouth2EastOtherSouth2East_e2_o1_TestD0Ev
FNDA:0,_ZN68RssSceneCreationTestWithRouteEgoSouth2EastOtherSouth2East_e2_o1_TestC2Ev
FNDA:0,_ZN68RssSceneCreationTestWithRouteEgoSouth2EastOtherSouth2East_e2_o1_TestD2Ev
FNDA:0,_ZN68RssSceneCreationTestWithRouteEgoSouth2EastOtherSouth2East_e2_o2_Test8TestBodyEv
FNDA:0,_ZN68RssSceneCreationTestWithRouteEgoSouth2EastOtherSouth2East_e2_o2_TestC2Ev
FNDA:0,_ZN68RssSceneCreationTestWithRouteEgoSouth2EastOtherSouth2East_e2_o2_TestD2Ev
FNDA:0,_ZN68RssSceneCreationTestWithRouteEgoSouth2EastOtherSouth2East_e2_o2_TestD0Ev
FNDA:0,_ZN68RssSceneCreationTestWithRouteEgoSouth2EastOtherSouth2East_e2_o3_TestD0Ev
FNDA:0,_ZN68RssSceneCreationTestWithRouteEgoSouth2EastOtherSouth2East_e2_o3_TestD2Ev
FNDA:0,_ZN68RssSceneCreationTestWithRouteEgoSouth2EastOtherSouth2East_e2_o3_Test8TestBodyEv
FNDA:0,_ZN68RssSceneCreationTestWithRouteEgoSouth2EastOtherSouth2East_e2_o3_TestC2Ev
FNDA:0,_ZN68RssSceneCreationTestWithRouteEgoSouth2EastOtherSouth2East_e2_o4_Test8TestBodyEv
FNDA:0,_ZN68RssSceneCreationTestWithRouteEgoSouth2EastOtherSouth2East_e2_o4_TestD2Ev
FNDA:0,_ZN68RssSceneCreationTestWithRouteEgoSouth2EastOtherSouth2East_e2_o4_TestC2Ev
FNDA:0,_ZN68RssSceneCreationTestWithRouteEgoSouth2EastOtherSouth2East_e2_o4_TestD0Ev
FNDA:0,_ZN68RssSceneCreationTestWithRouteEgoSouth2EastOtherSouth2East_e3_o0_TestD2Ev
FNDA:0,_ZN68RssSceneCreationTestWithRouteEgoSouth2EastOtherSouth2East_e3_o0_Test8TestBodyEv
FNDA:0,_ZN68RssSceneCreationTestWithRouteEgoSouth2EastOtherSouth2East_e3_o0_TestD0Ev
FNDA:0,_ZN68RssSceneCreationTestWithRouteEgoSouth2EastOtherSouth2East_e3_o0_TestC2Ev
FNDA:0,_ZN68RssSceneCreationTestWithRouteEgoSouth2EastOtherSouth2East_e3_o1_TestC2Ev
FNDA:0,_ZN68RssSceneCreationTestWithRouteEgoSouth2EastOtherSouth2East_e3_o1_TestD0Ev
FNDA:0,_ZN68RssSceneCreationTestWithRouteEgoSouth2EastOtherSouth2East_e3_o1_Test8TestBodyEv
FNDA:0,_ZN68RssSceneCreationTestWithRouteEgoSouth2EastOtherSouth2East_e3_o1_TestD2Ev
FNDA:0,_ZN68RssSceneCreationTestWithRouteEgoSouth2EastOtherSouth2East_e3_o2_TestC2Ev
FNDA:0,_ZN68RssSceneCreationTestWithRouteEgoSouth2EastOtherSouth2East_e3_o2_TestD2Ev
FNDA:0,_ZN68RssSceneCreationTestWithRouteEgoSouth2EastOtherSouth2East_e3_o2_Test8TestBodyEv
FNDA:0,_ZN68RssSceneCreationTestWithRouteEgoSouth2EastOtherSouth2East_e3_o2_TestD0Ev
FNDA:0,_ZN68RssSceneCreationTestWithRouteEgoSouth2EastOtherSouth2East_e3_o3_Test8TestBodyEv
FNDA:0,_ZN68RssSceneCreationTestWithRouteEgoSouth2EastOtherSouth2East_e3_o3_TestD2Ev
FNDA:0,_ZN68RssSceneCreationTestWithRouteEgoSouth2EastOtherSouth2East_e3_o3_TestC2Ev
FNDA:0,_ZN68RssSceneCreationTestWithRouteEgoSouth2EastOtherSouth2East_e3_o3_TestD0Ev
FNDA:0,_ZN68RssSceneCreationTestWithRouteEgoSouth2EastOtherSouth2East_e3_o4_Test8TestBodyEv
FNDA:0,_ZN68RssSceneCreationTestWithRouteEgoSouth2EastOtherSouth2East_e3_o4_TestC2Ev
FNDA:0,_ZN68RssSceneCreationTestWithRouteEgoSouth2EastOtherSouth2East_e3_o4_TestD2Ev
FNDA:0,_ZN68RssSceneCreationTestWithRouteEgoSouth2EastOtherSouth2East_e3_o4_TestD0Ev
FNDA:0,_ZN68RssSceneCreationTestWithRouteEgoSouth2EastOtherSouth2East_e4_o0_TestD2Ev
FNDA:0,_ZN68RssSceneCreationTestWithRouteEgoSouth2EastOtherSouth2East_e4_o0_Test8TestBodyEv
FNDA:0,_ZN68RssSceneCreationTestWithRouteEgoSouth2EastOtherSouth2East_e4_o0_TestD0Ev
FNDA:0,_ZN68RssSceneCreationTestWithRouteEgoSouth2EastOtherSouth2East_e4_o0_TestC2Ev
FNDA:0,_ZN68RssSceneCreationTestWithRouteEgoSouth2EastOtherSouth2East_e4_o1_TestD2Ev
FNDA:0,_ZN68RssSceneCreationTestWithRouteEgoSouth2EastOtherSouth2East_e4_o1_Test8TestBodyEv
FNDA:0,_ZN68RssSceneCreationTestWithRouteEgoSouth2EastOtherSouth2East_e4_o1_TestC2Ev
FNDA:0,_ZN68RssSceneCreationTestWithRouteEgoSouth2EastOtherSouth2East_e4_o1_TestD0Ev
FNDA:0,_ZN68RssSceneCreationTestWithRouteEgoSouth2EastOtherSouth2East_e4_o2_TestD2Ev
FNDA:0,_ZN68RssSceneCreationTestWithRouteEgoSouth2EastOtherSouth2East_e4_o2_Test8TestBodyEv
FNDA:0,_ZN68RssSceneCreationTestWithRouteEgoSouth2EastOtherSouth2East_e4_o2_TestC2Ev
FNDA:0,_ZN68RssSceneCreationTestWithRouteEgoSouth2EastOtherSouth2East_e4_o2_TestD0Ev
FNDA:0,_ZN68RssSceneCreationTestWithRouteEgoSouth2EastOtherSouth2East_e4_o3_TestC2Ev
FNDA:0,_ZN68RssSceneCreationTestWithRouteEgoSouth2EastOtherSouth2East_e4_o3_TestD0Ev
FNDA:0,_ZN68RssSceneCreationTestWithRouteEgoSouth2EastOtherSouth2East_e4_o3_Test8TestBodyEv
FNDA:0,_ZN68RssSceneCreationTestWithRouteEgoSouth2EastOtherSouth2East_e4_o3_TestD2Ev
FNDA:0,_ZN68RssSceneCreationTestWithRouteEgoSouth2EastOtherSouth2East_e4_o4_TestC2Ev
FNDA:0,_ZN68RssSceneCreationTestWithRouteEgoSouth2EastOtherSouth2East_e4_o4_TestD2Ev
FNDA:0,_ZN68RssSceneCreationTestWithRouteEgoSouth2EastOtherSouth2East_e4_o4_TestD0Ev
FNDA:0,_ZN68RssSceneCreationTestWithRouteEgoSouth2EastOtherSouth2East_e4_o4_Test8TestBodyEv
FNDA:0,_ZN60RssSceneCreationTestWithoutRouteEgoSouth2EastOtherSouth2EastD2Ev
FNDA:0,_ZN60RssSceneCreationTestWithoutRouteEgoSouth2EastOtherSouth2EastD0Ev
FNDA:0,_ZN60RssSceneCreationTestWithoutRouteEgoSouth2EastOtherSouth2EastC2Ev
FNDA:0,_ZN71RssSceneCreationTestWithoutRouteEgoSouth2EastOtherSouth2East_e0_o0_TestD0Ev
FNDA:0,_ZN71RssSceneCreationTestWithoutRouteEgoSouth2EastOtherSouth2East_e0_o0_Test8TestBodyEv
FNDA:0,_ZN71RssSceneCreationTestWithoutRouteEgoSouth2EastOtherSouth2East_e0_o0_TestC2Ev
FNDA:0,_ZN71RssSceneCreationTestWithoutRouteEgoSouth2EastOtherSouth2East_e0_o0_TestD2Ev
FNDA:0,_ZN71RssSceneCreationTestWithoutRouteEgoSouth2EastOtherSouth2East_e0_o1_Test8TestBodyEv
FNDA:0,_ZN71RssSceneCreationTestWithoutRouteEgoSouth2EastOtherSouth2East_e0_o1_TestD2Ev
FNDA:0,_ZN71RssSceneCreationTestWithoutRouteEgoSouth2EastOtherSouth2East_e0_o1_TestC2Ev
FNDA:0,_ZN71RssSceneCreationTestWithoutRouteEgoSouth2EastOtherSouth2East_e0_o1_TestD0Ev
FNDA:0,_ZN71RssSceneCreationTestWithoutRouteEgoSouth2EastOtherSouth2East_e0_o2_TestC2Ev
FNDA:0,_ZN71RssSceneCreationTestWithoutRouteEgoSouth2EastOtherSouth2East_e0_o2_TestD2Ev
FNDA:0,_ZN71RssSceneCreationTestWithoutRouteEgoSouth2EastOtherSouth2East_e0_o2_TestD0Ev
FNDA:0,_ZN71RssSceneCreationTestWithoutRouteEgoSouth2EastOtherSouth2East_e0_o2_Test8TestBodyEv
FNDA:0,_ZN71RssSceneCreationTestWithoutRouteEgoSouth2EastOtherSouth2East_e0_o3_Test8TestBodyEv
FNDA:0,_ZN71RssSceneCreationTestWithoutRouteEgoSouth2EastOtherSouth2East_e0_o3_TestC2Ev
FNDA:0,_ZN71RssSceneCreationTestWithoutRouteEgoSouth2EastOtherSouth2East_e0_o3_TestD0Ev
FNDA:0,_ZN71RssSceneCreationTestWithoutRouteEgoSouth2EastOtherSouth2East_e0_o3_TestD2Ev
FNDA:0,_ZN71RssSceneCreationTestWithoutRouteEgoSouth2EastOtherSouth2East_e0_o4_TestD0Ev
FNDA:0,_ZN71RssSceneCreationTestWithoutRouteEgoSouth2EastOtherSouth2East_e0_o4_TestD2Ev
FNDA:0,_ZN71RssSceneCreationTestWithoutRouteEgoSouth2EastOtherSouth2East_e0_o4_Test8TestBodyEv
FNDA:0,_ZN71RssSceneCreationTestWithoutRouteEgoSouth2EastOtherSouth2East_e0_o4_TestC2Ev
FNDA:0,_ZN71RssSceneCreationTestWithoutRouteEgoSouth2EastOtherSouth2East_e1_o0_Test8TestBodyEv
FNDA:0,_ZN71RssSceneCreationTestWithoutRouteEgoSouth2EastOtherSouth2East_e1_o0_TestC2Ev
FNDA:0,_ZN71RssSceneCreationTestWithoutRouteEgoSouth2EastOtherSouth2East_e1_o0_TestD2Ev
FNDA:0,_ZN71RssSceneCreationTestWithoutRouteEgoSouth2EastOtherSouth2East_e1_o0_TestD0Ev
FNDA:0,_ZN71RssSceneCreationTestWithoutRouteEgoSouth2EastOtherSouth2East_e1_o1_TestD0Ev
FNDA:0,_ZN71RssSceneCreationTestWithoutRouteEgoSouth2EastOtherSouth2East_e1_o1_TestC2Ev
FNDA:0,_ZN71RssSceneCreationTestWithoutRouteEgoSouth2EastOtherSouth2East_e1_o1_TestD2Ev
FNDA:0,_ZN71RssSceneCreationTestWithoutRouteEgoSouth2EastOtherSouth2East_e1_o1_Test8TestBodyEv
FNDA:0,_ZN71RssSceneCreationTestWithoutRouteEgoSouth2EastOtherSouth2East_e1_o2_Test8TestBodyEv
FNDA:0,_ZN71RssSceneCreationTestWithoutRouteEgoSouth2EastOtherSouth2East_e1_o2_TestD2Ev
FNDA:0,_ZN71RssSceneCreationTestWithoutRouteEgoSouth2EastOtherSouth2East_e1_o2_TestC2Ev
FNDA:0,_ZN71RssSceneCreationTestWithoutRouteEgoSouth2EastOtherSouth2East_e1_o2_TestD0Ev
FNDA:0,_ZN71RssSceneCreationTestWithoutRouteEgoSouth2EastOtherSouth2East_e1_o3_Test8TestBodyEv
FNDA:0,_ZN71RssSceneCreationTestWithoutRouteEgoSouth2EastOtherSouth2East_e1_o3_TestD0Ev
FNDA:0,_ZN71RssSceneCreationTestWithoutRouteEgoSouth2EastOtherSouth2East_e1_o3_TestD2Ev
FNDA:0,_ZN71RssSceneCreationTestWithoutRouteEgoSouth2EastOtherSouth2East_e1_o3_TestC2Ev
FNDA:0,_ZN71RssSceneCreationTestWithoutRouteEgoSouth2EastOtherSouth2East_e1_o4_Test8TestBodyEv
FNDA:0,_ZN71RssSceneCreationTestWithoutRouteEgoSouth2EastOtherSouth2East_e1_o4_TestD0Ev
FNDA:0,_ZN71RssSceneCreationTestWithoutRouteEgoSouth2EastOtherSouth2East_e1_o4_TestD2Ev
FNDA:0,_ZN71RssSceneCreationTestWithoutRouteEgoSouth2EastOtherSouth2East_e1_o4_TestC2Ev
FNDA:0,_ZN71RssSceneCreationTestWithoutRouteEgoSouth2EastOtherSouth2East_e2_o0_TestD2Ev
FNDA:0,_ZN71RssSceneCreationTestWithoutRouteEgoSouth2EastOtherSouth2East_e2_o0_TestC2Ev
FNDA:0,_ZN71RssSceneCreationTestWithoutRouteEgoSouth2EastOtherSouth2East_e2_o0_Test8TestBodyEv
FNDA:0,_ZN71RssSceneCreationTestWithoutRouteEgoSouth2EastOtherSouth2East_e2_o0_TestD0Ev
FNDA:0,_ZN71RssSceneCreationTestWithoutRouteEgoSouth2EastOtherSouth2East_e2_o1_TestD2Ev
FNDA:0,_ZN71RssSceneCreationTestWithoutRouteEgoSouth2EastOtherSouth2East_e2_o1_TestD0Ev
FNDA:0,_ZN71RssSceneCreationTestWithoutRouteEgoSouth2EastOtherSouth2East_e2_o1_Test8TestBodyEv
FNDA:0,_ZN71RssSceneCreationTestWithoutRouteEgoSouth2EastOtherSouth2East_e2_o1_TestC2Ev
FNDA:0,_ZN71RssSceneCreationTestWithoutRouteEgoSouth2EastOtherSouth2East_e2_o2_Test8TestBodyEv
FNDA:0,_ZN71RssSceneCreationTestWithoutRouteEgoSouth2EastOtherSouth2East_e2_o2_TestC2Ev
FNDA:0,_ZN71RssSceneCreationTestWithoutRouteEgoSouth2EastOtherSouth2East_e2_o2_TestD0Ev
FNDA:0,_ZN71RssSceneCreationTestWithoutRouteEgoSouth2EastOtherSouth2East_e2_o2_TestD2Ev
FNDA:0,_ZN71RssSceneCreationTestWithoutRouteEgoSouth2EastOtherSouth2East_e2_o3_TestC2Ev
FNDA:0,_ZN71RssSceneCreationTestWithoutRouteEgoSouth2EastOtherSouth2East_e2_o3_TestD2Ev
FNDA:0,_ZN71RssSceneCreationTestWithoutRouteEgoSouth2EastOtherSouth2East_e2_o3_TestD0Ev
FNDA:0,_ZN71RssSceneCreationTestWithoutRouteEgoSouth2EastOtherSouth2East_e2_o3_Test8TestBodyEv
FNDA:0,_ZN71RssSceneCreationTestWithoutRouteEgoSouth2EastOtherSouth2East_e2_o4_Test8TestBodyEv
FNDA:0,_ZN71RssSceneCreationTestWithoutRouteEgoSouth2EastOtherSouth2East_e2_o4_TestD2Ev
FNDA:0,_ZN71RssSceneCreationTestWithoutRouteEgoSouth2EastOtherSouth2East_e2_o4_TestC2Ev
FNDA:0,_ZN71RssSceneCreationTestWithoutRouteEgoSouth2EastOtherSouth2East_e2_o4_TestD0Ev
FNDA:0,_ZN71RssSceneCreationTestWithoutRouteEgoSouth2EastOtherSouth2East_e3_o0_TestD0Ev
FNDA:0,_ZN71RssSceneCreationTestWithoutRouteEgoSouth2EastOtherSouth2East_e3_o0_TestD2Ev
FNDA:0,_ZN71RssSceneCreationTestWithoutRouteEgoSouth2EastOtherSouth2East_e3_o0_Test8TestBodyEv
FNDA:0,_ZN71RssSceneCreationTestWithoutRouteEgoSouth2EastOtherSouth2East_e3_o0_TestC2Ev
FNDA:0,_ZN71RssSceneCreationTestWithoutRouteEgoSouth2EastOtherSouth2East_e3_o1_TestC2Ev
FNDA:0,_ZN71RssSceneCreationTestWithoutRouteEgoSouth2EastOtherSouth2East_e3_o1_TestD0Ev
FNDA:0,_ZN71RssSceneCreationTestWithoutRouteEgoSouth2EastOtherSouth2East_e3_o1_Test8TestBodyEv
FNDA:0,_ZN71RssSceneCreationTestWithoutRouteEgoSouth2EastOtherSouth2East_e3_o1_TestD2Ev
FNDA:0,_ZN71RssSceneCreationTestWithoutRouteEgoSouth2EastOtherSouth2East_e3_o2_Test8TestBodyEv
FNDA:0,_ZN71RssSceneCreationTestWithoutRouteEgoSouth2EastOtherSouth2East_e3_o2_TestC2Ev
FNDA:0,_ZN71RssSceneCreationTestWithoutRouteEgoSouth2EastOtherSouth2East_e3_o2_TestD2Ev
FNDA:0,_ZN71RssSceneCreationTestWithoutRouteEgoSouth2EastOtherSouth2East_e3_o2_TestD0Ev
FNDA:0,_ZN71RssSceneCreationTestWithoutRouteEgoSouth2EastOtherSouth2East_e3_o3_TestD2Ev
FNDA:0,_ZN71RssSceneCreationTestWithoutRouteEgoSouth2EastOtherSouth2East_e3_o3_TestD0Ev
FNDA:0,_ZN71RssSceneCreationTestWithoutRouteEgoSouth2EastOtherSouth2East_e3_o3_Test8TestBodyEv
FNDA:0,_ZN71RssSceneCreationTestWithoutRouteEgoSouth2EastOtherSouth2East_e3_o3_TestC2Ev
FNDA:0,_ZN71RssSceneCreationTestWithoutRouteEgoSouth2EastOtherSouth2East_e3_o4_Test8TestBodyEv
FNDA:0,_ZN71RssSceneCreationTestWithoutRouteEgoSouth2EastOtherSouth2East_e3_o4_TestD0Ev
FNDA:0,_ZN71RssSceneCreationTestWithoutRouteEgoSouth2EastOtherSouth2East_e3_o4_TestD2Ev
FNDA:0,_ZN71RssSceneCreationTestWithoutRouteEgoSouth2EastOtherSouth2East_e3_o4_TestC2Ev
FNDA:0,_ZN71RssSceneCreationTestWithoutRouteEgoSouth2EastOtherSouth2East_e4_o0_Test8TestBodyEv
FNDA:0,_ZN71RssSceneCreationTestWithoutRouteEgoSouth2EastOtherSouth2East_e4_o0_TestD0Ev
FNDA:0,_ZN71RssSceneCreationTestWithoutRouteEgoSouth2EastOtherSouth2East_e4_o0_TestD2Ev
FNDA:0,_ZN71RssSceneCreationTestWithoutRouteEgoSouth2EastOtherSouth2East_e4_o0_TestC2Ev
FNDA:0,_ZN71RssSceneCreationTestWithoutRouteEgoSouth2EastOtherSouth2East_e4_o1_TestC2Ev
FNDA:0,_ZN71RssSceneCreationTestWithoutRouteEgoSouth2EastOtherSouth2East_e4_o1_TestD0Ev
FNDA:0,_ZN71RssSceneCreationTestWithoutRouteEgoSouth2EastOtherSouth2East_e4_o1_TestD2Ev
FNDA:0,_ZN71RssSceneCreationTestWithoutRouteEgoSouth2EastOtherSouth2East_e4_o1_Test8TestBodyEv
FNDA:0,_ZN71RssSceneCreationTestWithoutRouteEgoSouth2EastOtherSouth2East_e4_o2_TestD2Ev
FNDA:0,_ZN71RssSceneCreationTestWithoutRouteEgoSouth2EastOtherSouth2East_e4_o2_TestD0Ev
FNDA:0,_ZN71RssSceneCreationTestWithoutRouteEgoSouth2EastOtherSouth2East_e4_o2_TestC2Ev
FNDA:0,_ZN71RssSceneCreationTestWithoutRouteEgoSouth2EastOtherSouth2East_e4_o2_Test8TestBodyEv
FNDA:0,_ZN71RssSceneCreationTestWithoutRouteEgoSouth2EastOtherSouth2East_e4_o3_TestC2Ev
FNDA:0,_ZN71RssSceneCreationTestWithoutRouteEgoSouth2EastOtherSouth2East_e4_o3_TestD2Ev
FNDA:0,_ZN71RssSceneCreationTestWithoutRouteEgoSouth2EastOtherSouth2East_e4_o3_Test8TestBodyEv
FNDA:0,_ZN71RssSceneCreationTestWithoutRouteEgoSouth2EastOtherSouth2East_e4_o3_TestD0Ev
FNDA:0,_ZN71RssSceneCreationTestWithoutRouteEgoSouth2EastOtherSouth2East_e4_o4_Test8TestBodyEv
FNDA:0,_ZN71RssSceneCreationTestWithoutRouteEgoSouth2EastOtherSouth2East_e4_o4_TestD0Ev
FNDA:0,_ZN71RssSceneCreationTestWithoutRouteEgoSouth2EastOtherSouth2East_e4_o4_TestC2Ev
FNDA:0,_ZN71RssSceneCreationTestWithoutRouteEgoSouth2EastOtherSouth2East_e4_o4_TestD2Ev
FNDA:0,_Z41__static_initialization_and_destruction_0ii
FNDA:0,_GLOBAL__sub_I__ZN68RssSceneCreationTestWithRouteEgoSouth2EastOtherSouth2East_e0_o0_Test10test_info_E
FNF:208
FNH:0
DA:11,0
DA:28,0
DA:30,0
DA:31,0
DA:32,0
DA:33,0
DA:34,0
DA:36,0
DA:38,0
DA:39,0
DA:40,0
DA:41,0
DA:42,0
DA:44,0
DA:46,0
DA:47,0
DA:48,0
DA:49,0
DA:50,0
DA:52,0
DA:54,0
DA:55,0
DA:56,0
DA:57,0
DA:58,0
DA:60,0
DA:62,0
DA:63,0
DA:64,0
DA:65,0
DA:66,0
DA:68,0
DA:70,0
DA:71,0
DA:73,0
DA:74,0
DA:75,0
DA:77,0
DA:79,0
DA:80,0
DA:82,0
DA:83,0
DA:84,0
DA:86,0
DA:88,0
DA:89,0
DA:90,0
DA:91,0
DA:92,0
DA:94,0
DA:96,0
DA:97,0
DA:98,0
DA:99,0
DA:100,0
DA:102,0
DA:104,0
DA:105,0
DA:106,0
DA:107,0
DA:108,0
DA:110,0
DA:112,0
DA:113,0
DA:115,0
DA:116,0
DA:117,0
DA:119,0
DA:121,0
DA:122,0
DA:124,0
DA:125,0
DA:126,0
DA:128,0
DA:130,0
DA:131,0
DA:133,0
DA:134,0
DA:135,0
DA:137,0
DA:139,0
DA:140,0
DA:141,0
DA:142,0
DA:143,0
DA:145,0
DA:147,0
DA:148,0
DA:149,0
DA:150,0
DA:151,0
DA:153,0
DA:155,0
DA:156,0
DA:158,0
DA:159,0
DA:160,0
DA:162,0
DA:164,0
DA:165,0
DA:167,0
DA:168,0
DA:169,0
DA:171,0
DA:173,0
DA:174,0
DA:176,0
DA:177,0
DA:178,0
DA:180,0
DA:182,0
DA:183,0
DA:185,0
DA:186,0
DA:187,0
DA:189,0
DA:191,0
DA:192,0
DA:193,0
DA:194,0
DA:195,0
DA:197,0
DA:199,0
DA:200,0
DA:202,0
DA:203,0
DA:204,0
DA:206,0
DA:208,0
DA:209,0
DA:211,0
DA:212,0
DA:213,0
DA:215,0
DA:217,0
DA:218,0
DA:220,0
DA:221,0
DA:222,0
DA:224,0
DA:226,0
DA:227,0
DA:229,0
DA:230,0
DA:231,0
DA:233,0
DA:235,0
DA:236,0
DA:238,0
DA:239,0
DA:240,0
DA:242,0
DA:259,0
DA:261,0
DA:262,0
DA:263,0
DA:264,0
DA:265,0
DA:267,0
DA:269,0
DA:270,0
DA:271,0
DA:272,0
DA:273,0
DA:275,0
DA:277,0
DA:278,0
DA:279,0
DA:280,0
DA:281,0
DA:283,0
DA:285,0
DA:286,0
DA:287,0
DA:288,0
DA:289,0
DA:291,0
DA:293,0
DA:294,0
DA:295,0
DA:296,0
DA:297,0
DA:299,0
DA:301,0
DA:302,0
DA:304,0
DA:305,0
DA:306,0
DA:308,0
DA:310,0
DA:311,0
DA:313,0
DA:314,0
DA:315,0
DA:317,0
DA:319,0
DA:320,0
DA:321,0
DA:322,0
DA:323,0
DA:325,0
DA:327,0
DA:328,0
DA:329,0
DA:330,0
DA:331,0
DA:333,0
DA:335,0
DA:336,0
DA:337,0
DA:338,0
DA:339,0
DA:341,0
DA:343,0
DA:344,0
DA:346,0
DA:347,0
DA:348,0
DA:350,0
DA:352,0
DA:353,0
DA:355,0
DA:356,0
DA:357,0
DA:359,0
DA:361,0
DA:362,0
DA:364,0
DA:365,0
DA:366,0
DA:368,0
DA:370,0
DA:371,0
DA:372,0
DA:373,0
DA:374,0
DA:376,0
DA:378,0
DA:379,0
DA:380,0
DA:381,0
DA:382,0
DA:384,0
DA:386,0
DA:387,0
DA:389,0
DA:390,0
DA:391,0
DA:393,0
DA:395,0
DA:396,0
DA:398,0
DA:399,0
DA:400,0
DA:402,0
DA:404,0
DA:405,0
DA:407,0
DA:408,0
DA:409,0
DA:411,0
DA:413,0
DA:414,0
DA:416,0
DA:417,0
DA:418,0
DA:420,0
DA:422,0
DA:423,0
DA:424,0
DA:425,0
DA:426,0
DA:428,0
DA:430,0
DA:431,0
DA:433,0
DA:434,0
DA:435,0
DA:437,0
DA:439,0
DA:440,0
DA:442,0
DA:443,0
DA:444,0
DA:446,0
DA:448,0
DA:449,0
DA:451,0
DA:452,0
DA:453,0
DA:455,0
DA:457,0
DA:458,0
DA:460,0
DA:461,0
DA:462,0
DA:464,0
DA:466,0
DA:467,0
DA:469,0
DA:470,0
DA:471,0
LF:302
LH:0
end_of_record
TN:
SF:/home/runner/work/ad-rss-lib/ad-rss-lib/ad_rss_map_integration/impl/include/ad/rss/map/RssObjectData.hpp
FN:34,_ZN2ad3rss3map13RssObjectDataD2Ev
FN:34,_ZN2ad3rss3map13RssObjectDataC2Ev
FN:34,_ZN2ad3rss3map13RssObjectDataC2ERKS2_
FNDA:0,_ZN2ad3rss3map13RssObjectDataD2Ev
FNDA:0,_ZN2ad3rss3map13RssObjectDataC2Ev
FNDA:0,_ZN2ad3rss3map13RssObjectDataC2ERKS2_
FNF:3
FNH:0
DA:34,0
LF:1
LH:0
end_of_record
SF:/home/runner/work/ad-rss-lib/ad-rss-lib/ad_rss_map_integration/impl/include/ad/rss/map/RssSceneCreation.hpp
FN:53,_ZN2ad3rss3map16RssSceneCreationD2Ev
FNDA:0,_ZN2ad3rss3map16RssSceneCreationD2Ev
FNF:1
FNH:0
DA:53,0
LF:1
LH:0
end_of_record
SF:/home/runner/work/ad-rss-lib/ad-rss-lib/ad_rss_map_integration/impl/tests/RssSceneCreationTest.hpp
FN:25,_ZN20RssSceneCreationTestD0Ev
FN:25,_ZN20RssSceneCreationTestD2Ev
FN:25,_ZN20RssSceneCreationTestC2Ev
FN:47,_ZN20RssSceneCreationTest23getUnstructuredSettingsEv
FN:58,_ZN20RssSceneCreationTest21getEgoVehicleDynamicsEN2ad7physics5SpeedE
FN:111,_ZN20RssSceneCreationTest7initMapEv
FN:145,_ZN20RssSceneCreationTest5SetUpEv
FN:153,_ZN20RssSceneCreationTest8TearDownEv
FN:157,_ZN20RssSceneCreationTest19initializeObjectGeoERKSt5tupleIJN2ad3map5point9LongitudeENS3_8LatitudeEdEERNS2_5match6ObjectE
FN:166,_ZN20RssSceneCreationTest19initializeObjectENUERKN2ad3map5point8ENUPointERKNS2_10ENUHeadingERNS1_5match6ObjectE
FN:303,_ZN26RssSceneCreationTestTown01D0Ev
FN:303,_ZN26RssSceneCreationTestTown01D2Ev
FN:303,_ZN26RssSceneCreationTestTown01C2Ev
FN:305,_ZN26RssSceneCreationTestTown0112getMapToLoadEv
FN:310,_ZN26RssSceneCreationTestTown0120initializeEgoVehicleEv
FNDA:0,_ZN20RssSceneCreationTestD0Ev
FNDA:0,_ZN20RssSceneCreationTestD2Ev
FNDA:0,_ZN20RssSceneCreationTestC2Ev
FNDA:0,_ZN20RssSceneCreationTest23getUnstructuredSettingsEv
FNDA:0,_ZN20RssSceneCreationTest21getEgoVehicleDynamicsEN2ad7physics5SpeedE
FNDA:0,_ZN20RssSceneCreationTest7initMapEv
FNDA:0,_ZN20RssSceneCreationTest5SetUpEv
FNDA:0,_ZN20RssSceneCreationTest8TearDownEv
FNDA:0,_ZN20RssSceneCreationTest19initializeObjectGeoERKSt5tupleIJN2ad3map5point9LongitudeENS3_8LatitudeEdEERNS2_5match6ObjectE
FNDA:0,_ZN20RssSceneCreationTest19initializeObjectENUERKN2ad3map5point8ENUPointERKNS2_10ENUHeadingERNS1_5match6ObjectE
FNDA:0,_ZN26RssSceneCreationTestTown01D0Ev
FNDA:0,_ZN26RssSceneCreationTestTown01D2Ev
FNDA:0,_ZN26RssSceneCreationTestTown01C2Ev
FNDA:0,_ZN26RssSceneCreationTestTown0112getMapToLoadEv
FNDA:0,_ZN26RssSceneCreationTestTown0120initializeEgoVehicleEv
FNF:15
FNH:0
DA:25,0
DA:47,0
DA:49,0
DA:50,0
DA:51,0
DA:52,0
DA:53,0
DA:54,0
DA:55,0
DA:58,0
DA:61,0
DA:62,0
DA:63,0
DA:65,0
DA:66,0
DA:67,0
DA:68,0
DA:70,0
DA:72,0
DA:73,0
DA:75,0
DA:77,0
DA:111,0
DA:115,0
DA:116,0
DA:118,0
DA:119,0
DA:123,0
DA:124,0
DA:127,0
DA:129,0
DA:130,0
DA:132,0
DA:136,0
DA:137,0
DA:139,0
DA:145,0
DA:149,0
DA:150,0
DA:151,0
DA:153,0
DA:155,0
DA:157,0
DA:159,0
DA:160,0
DA:161,0
DA:162,0
DA:163,0
DA:164,0
DA:166,0
DA:170,0
DA:171,0
DA:172,0
DA:173,0
DA:174,0
DA:175,0
DA:177,0
DA:179,0
DA:181,0
DA:183,0
DA:303,0
DA:305,0
DA:307,0
DA:310,0
DA:314,0
DA:316,0
DA:318,0
DA:319,0
DA:320,0
DA:325,0
DA:327,0
DA:329,0
DA:331,0
DA:332,0
LF:74
LH:0
end_of_record
SF:/home/runner/work/ad-rss-lib/ad-rss-lib/ad_rss_map_integration/impl/tests/RssSceneCreationTests.cpp
FN:11,_ZN34RssSceneCreationTestRoadBoundariesC2Ev
FN:11,_ZN34RssSceneCreationTestRoadBoundariesD2Ev
FN:11,_ZN34RssSceneCreationTestRoadBoundariesD0Ev
FN:13,_ZN34RssSceneCreationTestRoadBoundaries11getTestModeEv
FN:19,_ZN64RssSceneCreationTestRoadBoundaries_testAppendRoadBoundaries_TestC2Ev
FN:19,_ZN64RssSceneCreationTestRoadBoundaries_testAppendRoadBoundaries_TestD0Ev
FN:19,_ZN64RssSceneCreationTestRoadBoundaries_testAppendRoadBoundaries_TestD2Ev
FN:19,_ZN64RssSceneCreationTestRoadBoundaries_testAppendRoadBoundaries_Test8TestBodyEv
FN:112,_Z41__static_initialization_and_destruction_0ii
FN:112,_GLOBAL__sub_I__ZN64RssSceneCreationTestRoadBoundaries_testAppendRoadBoundaries_Test10test_info_E
FNDA:0,_ZN34RssSceneCreationTestRoadBoundariesC2Ev
FNDA:0,_ZN34RssSceneCreationTestRoadBoundariesD2Ev
FNDA:0,_ZN34RssSceneCreationTestRoadBoundariesD0Ev
FNDA:0,_ZN34RssSceneCreationTestRoadBoundaries11getTestModeEv
FNDA:0,_ZN64RssSceneCreationTestRoadBoundaries_testAppendRoadBoundaries_TestC2Ev
FNDA:0,_ZN64RssSceneCreationTestRoadBoundaries_testAppendRoadBoundaries_TestD0Ev
FNDA:0,_ZN64RssSceneCreationTestRoadBoundaries_testAppendRoadBoundaries_TestD2Ev
FNDA:0,_ZN64RssSceneCreationTestRoadBoundaries_testAppendRoadBoundaries_Test8TestBodyEv
FNDA:0,_Z41__static_initialization_and_destruction_0ii
FNDA:0,_GLOBAL__sub_I__ZN64RssSceneCreationTestRoadBoundaries_testAppendRoadBoundaries_Test10test_info_E
FNF:10
FNH:0
DA:11,0
DA:13,0
DA:15,0
DA:19,0
DA:21,0
DA:23,0
DA:24,0
DA:25,0
DA:26,0
DA:27,0
DA:28,0
DA:29,0
DA:30,0
DA:32,0
DA:34,0
DA:36,0
DA:38,0
DA:40,0
DA:41,0
DA:43,0
DA:44,0
DA:47,0
DA:48,0
DA:49,0
DA:50,0
DA:53,0
DA:56,0
DA:58,0
DA:60,0
DA:62,0
DA:63,0
DA:64,0
DA:67,0
DA:70,0
DA:75,0
DA:79,0
DA:81,0
DA:82,0
DA:83,0
DA:84,0
DA:85,0
DA:86,0
DA:87,0
DA:88,0
DA:89,0
DA:91,0
DA:92,0
DA:93,0
DA:94,0
DA:96,0
DA:99,0
DA:104,0
DA:107,0
DA:110,0
DA:111,0
DA:112,0
LF:56
LH:0
end_of_record
TN:
SF:/home/runner/work/ad-rss-lib/ad-rss-lib/ad_rss_map_integration/impl/include/ad/rss/map/RssObjectData.hpp
FN:34,_ZN2ad3rss3map13RssObjectDataC2Ev
FN:34,_ZN2ad3rss3map13RssObjectDataD2Ev
FNDA:0,_ZN2ad3rss3map13RssObjectDataC2Ev
FNDA:0,_ZN2ad3rss3map13RssObjectDataD2Ev
FNF:2
FNH:0
DA:34,0
LF:1
LH:0
end_of_record
SF:/home/runner/work/ad-rss-lib/ad-rss-lib/ad_rss_map_integration/impl/include/ad/rss/map/RssSceneCreation.hpp
FN:53,_ZN2ad3rss3map16RssSceneCreationD2Ev
FNDA:0,_ZN2ad3rss3map16RssSceneCreationD2Ev
FNF:1
FNH:0
DA:53,0
LF:1
LH:0
end_of_record
SF:/home/runner/work/ad-rss-lib/ad-rss-lib/ad_rss_map_integration/impl/tests/RssSceneCreationTest.hpp
FN:25,_ZN20RssSceneCreationTestC2Ev
FN:25,_ZN20RssSceneCreationTestD2Ev
FN:25,_ZN20RssSceneCreationTestD0Ev
FN:47,_ZN20RssSceneCreationTest23getUnstructuredSettingsEv
FN:58,_ZN20RssSceneCreationTest21getEgoVehicleDynamicsEN2ad7physics5SpeedE
FN:80,_ZN20RssSceneCreationTest24getObjectVehicleDynamicsEN2ad7physics5SpeedE
FN:111,_ZN20RssSceneCreationTest7initMapEv
FN:145,_ZN20RssSceneCreationTest5SetUpEv
FN:153,_ZN20RssSceneCreationTest8TearDownEv
FN:157,_ZN20RssSceneCreationTest19initializeObjectGeoERKSt5tupleIJN2ad3map5point9LongitudeENS3_8LatitudeEdEERNS2_5match6ObjectE
FN:166,_ZN20RssSceneCreationTest19initializeObjectENUERKN2ad3map5point8ENUPointERKNS2_10ENUHeadingERNS1_5match6ObjectE
FN:189,_ZN20RssSceneCreationTest17checkSceneResultsERKN2ad3rss5world10WorldModelERKmRKSt6vectorISt5tupleIJNS1_9situation13SituationTypeEmmNS0_7physics5SpeedEEESaISE_EE
FN:206,_ZZN20RssSceneCreationTest17checkSceneResultsERKN2ad3rss5world10WorldModelERKmRKSt6vectorISt5tupleIJNS1_9situation13SituationTypeEmmNS0_7physics5SpeedEEESaISE_EEENUlRKSE_E_D2Ev
FN:206,_ZZN20RssSceneCreationTest17checkSceneResultsERKN2ad3rss5world10WorldModelERKmRKSt6vectorISt5tupleIJNS1_9situation13SituationTypeEmmNS0_7physics5SpeedEEESaISE_EEENUlRKSE_E_C2ERKSL_
FN:206,_ZZN20RssSceneCreationTest17checkSceneResultsERKN2ad3rss5world10WorldModelERKmRKSt6vectorISt5tupleIJNS1_9situation13SituationTypeEmmNS0_7physics5SpeedEEESaISE_EEENKUlRKSE_E_clESK_
FN:227,_ZN20RssSceneCreationTest15shortenEgoRouteERKSt5tupleIJN2ad3map5point9LongitudeENS3_8LatitudeEdEE
FN:240,_ZN20RssSceneCreationTest16performSceneTestERKSt5tupleIJN2ad3map5point9LongitudeENS3_8LatitudeEdEES8_RKSt6vectorIS0_IJNS1_3rss9situation13SituationTypeEmmNS1_7physics5SpeedEEESaISF_EE
FN:303,_ZN26RssSceneCreationTestTown01D2Ev
FN:303,_ZN26RssSceneCreationTestTown01D0Ev
FN:303,_ZN26RssSceneCreationTestTown01C2Ev
FN:305,_ZN26RssSceneCreationTestTown0112getMapToLoadEv
FN:310,_ZN26RssSceneCreationTestTown0120initializeEgoVehicleEv
FN:351,_ZN26RssSceneCreationTestTown0121locationSouthIncomingEv
FN:358,_ZN26RssSceneCreationTestTown0121locationSouthEnteringEv
FN:364,_ZN26RssSceneCreationTestTown0118locationSouth2EastEv
FN:370,_ZN26RssSceneCreationTestTown0119locationEastExitingEv
FN:376,_ZN26RssSceneCreationTestTown0120locationEastOutgoingEv
FN:383,_ZN26RssSceneCreationTestTown0120locationEastIncomingEv
FN:390,_ZN26RssSceneCreationTestTown0120locationEastEnteringEv
FN:396,_ZN26RssSceneCreationTestTown0118locationEast2NorthEv
FN:409,_ZN26RssSceneCreationTestTown0120locationNorthExitingEv
FN:415,_ZN26RssSceneCreationTestTown0121locationNorthOutgoingEv
FN:466,_ZN29RssSceneCreationTestWithRouteD2Ev
FN:466,_ZN29RssSceneCreationTestWithRouteD0Ev
FN:466,_ZN29RssSceneCreationTestWithRouteC2Ev
FN:468,_ZN29RssSceneCreationTestWithRoute11getTestModeEv
FN:474,_ZN32RssSceneCreationTestWithoutRouteC2Ev
FN:474,_ZN32RssSceneCreationTestWithoutRouteD0Ev
FN:474,_ZN32RssSceneCreationTestWithoutRouteD2Ev
FN:476,_ZN32RssSceneCreationTestWithoutRoute11getTestModeEv
FNDA:0,_ZN20RssSceneCreationTestC2Ev
FNDA:0,_ZN20RssSceneCreationTestD2Ev
FNDA:0,_ZN20RssSceneCreationTestD0Ev
FNDA:0,_ZN20RssSceneCreationTest23getUnstructuredSettingsEv
FNDA:0,_ZN20RssSceneCreationTest21getEgoVehicleDynamicsEN2ad7physics5SpeedE
FNDA:0,_ZN20RssSceneCreationTest24getObjectVehicleDynamicsEN2ad7physics5SpeedE
FNDA:0,_ZN20RssSceneCreationTest7initMapEv
FNDA:0,_ZN20RssSceneCreationTest5SetUpEv
FNDA:0,_ZN20RssSceneCreationTest8TearDownEv
FNDA:0,_ZN20RssSceneCreationTest19initializeObjectGeoERKSt5tupleIJN2ad3map5point9LongitudeENS3_8LatitudeEdEERNS2_5match6ObjectE
FNDA:0,_ZN20RssSceneCreationTest19initializeObjectENUERKN2ad3map5point8ENUPointERKNS2_10ENUHeadingERNS1_5match6ObjectE
FNDA:0,_ZN20RssSceneCreationTest17checkSceneResultsERKN2ad3rss5world10WorldModelERKmRKSt6vectorISt5tupleIJNS1_9situation13SituationTypeEmmNS0_7physics5SpeedEEESaISE_EE
FNDA:0,_ZZN20RssSceneCreationTest17checkSceneResultsERKN2ad3rss5world10WorldModelERKmRKSt6vectorISt5tupleIJNS1_9situation13SituationTypeEmmNS0_7physics5SpeedEEESaISE_EEENUlRKSE_E_D2Ev
FNDA:0,_ZZN20RssSceneCreationTest17checkSceneResultsERKN2ad3rss5world10WorldModelERKmRKSt6vectorISt5tupleIJNS1_9situation13SituationTypeEmmNS0_7physics5SpeedEEESaISE_EEENUlRKSE_E_C2ERKSL_
FNDA:0,_ZZN20RssSceneCreationTest17checkSceneResultsERKN2ad3rss5world10WorldModelERKmRKSt6vectorISt5tupleIJNS1_9situation13SituationTypeEmmNS0_7physics5SpeedEEESaISE_EEENKUlRKSE_E_clESK_
FNDA:0,_ZN20RssSceneCreationTest15shortenEgoRouteERKSt5tupleIJN2ad3map5point9LongitudeENS3_8LatitudeEdEE
FNDA:0,_ZN20RssSceneCreationTest16performSceneTestERKSt5tupleIJN2ad3map5point9LongitudeENS3_8LatitudeEdEES8_RKSt6vectorIS0_IJNS1_3rss9situation13SituationTypeEmmNS1_7physics5SpeedEEESaISF_EE
FNDA:0,_ZN26RssSceneCreationTestTown01D2Ev
FNDA:0,_ZN26RssSceneCreationTestTown01D0Ev
FNDA:0,_ZN26RssSceneCreationTestTown01C2Ev
FNDA:0,_ZN26RssSceneCreationTestTown0112getMapToLoadEv
FNDA:0,_ZN26RssSceneCreationTestTown0120initializeEgoVehicleEv
FNDA:0,_ZN26RssSceneCreationTestTown0121locationSouthIncomingEv
FNDA:0,_ZN26RssSceneCreationTestTown0121locationSouthEnteringEv
FNDA:0,_ZN26RssSceneCreationTestTown0118locationSouth2EastEv
FNDA:0,_ZN26RssSceneCreationTestTown0119locationEastExitingEv
FNDA:0,_ZN26RssSceneCreationTestTown0120locationEastOutgoingEv
FNDA:0,_ZN26RssSceneCreationTestTown0120locationEastIncomingEv
FNDA:0,_ZN26RssSceneCreationTestTown0120locationEastEnteringEv
FNDA:0,_ZN26RssSceneCreationTestTown0118locationEast2NorthEv
FNDA:0,_ZN26RssSceneCreationTestTown0120locationNorthExitingEv
FNDA:0,_ZN26RssSceneCreationTestTown0121locationNorthOutgoingEv
FNDA:0,_ZN29RssSceneCreationTestWithRouteD2Ev
FNDA:0,_ZN29RssSceneCreationTestWithRouteD0Ev
FNDA:0,_ZN29RssSceneCreationTestWithRouteC2Ev
FNDA:0,_ZN29RssSceneCreationTestWithRoute11getTestModeEv
FNDA:0,_ZN32RssSceneCreationTestWithoutRouteC2Ev
FNDA:0,_ZN32RssSceneCreationTestWithoutRouteD0Ev
FNDA:0,_ZN32RssSceneCreationTestWithoutRouteD2Ev
FNDA:0,_ZN32RssSceneCreationTestWithoutRoute11getTestModeEv
FNF:40
FNH:0
DA:25,0
DA:47,0
DA:49,0
DA:50,0
DA:51,0
DA:52,0
DA:53,0
DA:54,0
DA:55,0
DA:58,0
DA:61,0
DA:62,0
DA:63,0
DA:65,0
DA:66,0
DA:67,0
DA:68,0
DA:70,0
DA:72,0
DA:73,0
DA:75,0
DA:77,0
DA:80,0
DA:83,0
DA:84,0
DA:85,0
DA:87,0
DA:88,0
DA:89,0
DA:90,0
DA:92,0
DA:94,0
DA:95,0
DA:97,0
DA:99,0
DA:111,0
DA:115,0
DA:116,0
DA:118,0
DA:119,0
DA:123,0
DA:124,0
DA:127,0
DA:129,0
DA:130,0
DA:132,0
DA:136,0
DA:137,0
DA:139,0
DA:145,0
DA:149,0
DA:150,0
DA:151,0
DA:153,0
DA:155,0
DA:157,0
DA:159,0
DA:160,0
DA:161,0
DA:162,0
DA:163,0
DA:164,0
DA:166,0
DA:170,0
DA:171,0
DA:172,0
DA:173,0
DA:174,0
DA:175,0
DA:177,0
DA:179,0
DA:181,0
DA:183,0
DA:189,0
DA:193,0
DA:194,0
DA:196,0
DA:197,0
DA:199,0
DA:200,0
DA:201,0
DA:202,0
DA:206,0
DA:207,0
DA:208,0
DA:209,0
DA:210,0
DA:211,0
DA:212,0
DA:214,0
DA:218,0
DA:221,0
DA:222,0
DA:223,0
DA:224,0
DA:227,0
DA:229,0
DA:231,0
DA:233,0
DA:235,0
DA:236,0
DA:240,0
DA:244,0
DA:246,0
DA:247,0
DA:249,0
DA:250,0
DA:251,0
DA:252,0
DA:254,0
DA:256,0
DA:258,0
DA:259,0
DA:260,0
DA:262,0
DA:263,0
DA:266,0
DA:267,0
DA:268,0
DA:269,0
DA:270,0
DA:271,0
DA:272,0
DA:273,0
DA:275,0
DA:276,0
DA:277,0
DA:278,0
DA:279,0
DA:280,0
DA:281,0
DA:282,0
DA:284,0
DA:289,0
DA:291,0
DA:292,0
DA:293,0
DA:303,0
DA:305,0
DA:307,0
DA:310,0
DA:314,0
DA:316,0
DA:318,0
DA:319,0
DA:320,0
DA:325,0
DA:327,0
DA:329,0
DA:331,0
DA:332,0
DA:351,0
DA:355,0
DA:358,0
DA:361,0
DA:364,0
DA:367,0
DA:370,0
DA:373,0
DA:376,0
DA:380,0
DA:383,0
DA:387,0
DA:390,0
DA:393,0
DA:396,0
DA:400,0
DA:409,0
DA:412,0
DA:415,0
DA:418,0
DA:466,0
DA:468,0
DA:470,0
DA:474,0
DA:476,0
DA:478,0
LF:177
LH:0
end_of_record
SF:/home/runner/work/ad-rss-lib/ad-rss-lib/ad_rss_map_integration/impl/tests/RssSceneCreationTestEgoSouth2EastOtherEast2North.cpp
FN:11,_ZN57RssSceneCreationTestWithRouteEgoSouth2EastOtherEast2NorthD2Ev
FN:11,_ZN57RssSceneCreationTestWithRouteEgoSouth2EastOtherEast2NorthD0Ev
FN:11,_ZN57RssSceneCreationTestWithRouteEgoSouth2EastOtherEast2NorthC2Ev
FN:30,_ZN68RssSceneCreationTestWithRouteEgoSouth2EastOtherEast2North_e0_o0_Test8TestBodyEv
FN:30,_ZN68RssSceneCreationTestWithRouteEgoSouth2EastOtherEast2North_e0_o0_TestD0Ev
FN:30,_ZN68RssSceneCreationTestWithRouteEgoSouth2EastOtherEast2North_e0_o0_TestC2Ev
FN:30,_ZN68RssSceneCreationTestWithRouteEgoSouth2EastOtherEast2North_e0_o0_TestD2Ev
FN:41,_ZN68RssSceneCreationTestWithRouteEgoSouth2EastOtherEast2North_e0_o1_TestD0Ev
FN:41,_ZN68RssSceneCreationTestWithRouteEgoSouth2EastOtherEast2North_e0_o1_TestC2Ev
FN:41,_ZN68RssSceneCreationTestWithRouteEgoSouth2EastOtherEast2North_e0_o1_TestD2Ev
FN:41,_ZN68RssSceneCreationTestWithRouteEgoSouth2EastOtherEast2North_e0_o1_Test8TestBodyEv
FN:52,_ZN68RssSceneCreationTestWithRouteEgoSouth2EastOtherEast2North_e0_o2_Test8TestBodyEv
FN:52,_ZN68RssSceneCreationTestWithRouteEgoSouth2EastOtherEast2North_e0_o2_TestD0Ev
FN:52,_ZN68RssSceneCreationTestWithRouteEgoSouth2EastOtherEast2North_e0_o2_TestC2Ev
FN:52,_ZN68RssSceneCreationTestWithRouteEgoSouth2EastOtherEast2North_e0_o2_TestD2Ev
FN:62,_ZN68RssSceneCreationTestWithRouteEgoSouth2EastOtherEast2North_e0_o3_TestC2Ev
FN:62,_ZN68RssSceneCreationTestWithRouteEgoSouth2EastOtherEast2North_e0_o3_Test8TestBodyEv
FN:62,_ZN68RssSceneCreationTestWithRouteEgoSouth2EastOtherEast2North_e0_o3_TestD2Ev
FN:62,_ZN68RssSceneCreationTestWithRouteEgoSouth2EastOtherEast2North_e0_o3_TestD0Ev
FN:72,_ZN68RssSceneCreationTestWithRouteEgoSouth2EastOtherEast2North_e0_o4_TestD2Ev
FN:72,_ZN68RssSceneCreationTestWithRouteEgoSouth2EastOtherEast2North_e0_o4_TestD0Ev
FN:72,_ZN68RssSceneCreationTestWithRouteEgoSouth2EastOtherEast2North_e0_o4_TestC2Ev
FN:72,_ZN68RssSceneCreationTestWithRouteEgoSouth2EastOtherEast2North_e0_o4_Test8TestBodyEv
FN:82,_ZN68RssSceneCreationTestWithRouteEgoSouth2EastOtherEast2North_e1_o0_TestD0Ev
FN:82,_ZN68RssSceneCreationTestWithRouteEgoSouth2EastOtherEast2North_e1_o0_TestC2Ev
FN:82,_ZN68RssSceneCreationTestWithRouteEgoSouth2EastOtherEast2North_e1_o0_TestD2Ev
FN:82,_ZN68RssSceneCreationTestWithRouteEgoSouth2EastOtherEast2North_e1_o0_Test8TestBodyEv
FN:93,_ZN68RssSceneCreationTestWithRouteEgoSouth2EastOtherEast2North_e1_o1_TestD0Ev
FN:93,_ZN68RssSceneCreationTestWithRouteEgoSouth2EastOtherEast2North_e1_o1_TestC2Ev
FN:93,_ZN68RssSceneCreationTestWithRouteEgoSouth2EastOtherEast2North_e1_o1_TestD2Ev
FN:93,_ZN68RssSceneCreationTestWithRouteEgoSouth2EastOtherEast2North_e1_o1_Test8TestBodyEv
FN:104,_ZN68RssSceneCreationTestWithRouteEgoSouth2EastOtherEast2North_e1_o2_TestD2Ev
FN:104,_ZN68RssSceneCreationTestWithRouteEgoSouth2EastOtherEast2North_e1_o2_Test8TestBodyEv
FN:104,_ZN68RssSceneCreationTestWithRouteEgoSouth2EastOtherEast2North_e1_o2_TestD0Ev
FN:104,_ZN68RssSceneCreationTestWithRouteEgoSouth2EastOtherEast2North_e1_o2_TestC2Ev
FN:114,_ZN68RssSceneCreationTestWithRouteEgoSouth2EastOtherEast2North_e1_o3_TestD0Ev
FN:114,_ZN68RssSceneCreationTestWithRouteEgoSouth2EastOtherEast2North_e1_o3_TestD2Ev
FN:114,_ZN68RssSceneCreationTestWithRouteEgoSouth2EastOtherEast2North_e1_o3_Test8TestBodyEv
FN:114,_ZN68RssSceneCreationTestWithRouteEgoSouth2EastOtherEast2North_e1_o3_TestC2Ev
FN:124,_ZN68RssSceneCreationTestWithRouteEgoSouth2EastOtherEast2North_e1_o4_TestD2Ev
FN:124,_ZN68RssSceneCreationTestWithRouteEgoSouth2EastOtherEast2North_e1_o4_TestC2Ev
FN:124,_ZN68RssSceneCreationTestWithRouteEgoSouth2EastOtherEast2North_e1_o4_TestD0Ev
FN:124,_ZN68RssSceneCreationTestWithRouteEgoSouth2EastOtherEast2North_e1_o4_Test8TestBodyEv
FN:134,_ZN68RssSceneCreationTestWithRouteEgoSouth2EastOtherEast2North_e2_o0_TestD0Ev
FN:134,_ZN68RssSceneCreationTestWithRouteEgoSouth2EastOtherEast2North_e2_o0_TestD2Ev
FN:134,_ZN68RssSceneCreationTestWithRouteEgoSouth2EastOtherEast2North_e2_o0_TestC2Ev
FN:134,_ZN68RssSceneCreationTestWithRouteEgoSouth2EastOtherEast2North_e2_o0_Test8TestBodyEv
FN:145,_ZN68RssSceneCreationTestWithRouteEgoSouth2EastOtherEast2North_e2_o1_TestC2Ev
FN:145,_ZN68RssSceneCreationTestWithRouteEgoSouth2EastOtherEast2North_e2_o1_TestD0Ev
FN:145,_ZN68RssSceneCreationTestWithRouteEgoSouth2EastOtherEast2North_e2_o1_Test8TestBodyEv
FN:145,_ZN68RssSceneCreationTestWithRouteEgoSouth2EastOtherEast2North_e2_o1_TestD2Ev
FN:156,_ZN68RssSceneCreationTestWithRouteEgoSouth2EastOtherEast2North_e2_o2_TestC2Ev
FN:156,_ZN68RssSceneCreationTestWithRouteEgoSouth2EastOtherEast2North_e2_o2_Test8TestBodyEv
FN:156,_ZN68RssSceneCreationTestWithRouteEgoSouth2EastOtherEast2North_e2_o2_TestD0Ev
FN:156,_ZN68RssSceneCreationTestWithRouteEgoSouth2EastOtherEast2North_e2_o2_TestD2Ev
FN:166,_ZN68RssSceneCreationTestWithRouteEgoSouth2EastOtherEast2North_e2_o3_Test8TestBodyEv
FN:166,_ZN68RssSceneCreationTestWithRouteEgoSouth2EastOtherEast2North_e2_o3_TestC2Ev
FN:166,_ZN68RssSceneCreationTestWithRouteEgoSouth2EastOtherEast2North_e2_o3_TestD0Ev
FN:166,_ZN68RssSceneCreationTestWithRouteEgoSouth2EastOtherEast2North_e2_o3_TestD2Ev
FN:176,_ZN68RssSceneCreationTestWithRouteEgoSouth2EastOtherEast2North_e2_o4_TestC2Ev
FN:176,_ZN68RssSceneCreationTestWithRouteEgoSouth2EastOtherEast2North_e2_o4_TestD2Ev
FN:176,_ZN68RssSceneCreationTestWithRouteEgoSouth2EastOtherEast2North_e2_o4_Test8TestBodyEv
FN:176,_ZN68RssSceneCreationTestWithRouteEgoSouth2EastOtherEast2North_e2_o4_TestD0Ev
FN:186,_ZN68RssSceneCreationTestWithRouteEgoSouth2EastOtherEast2North_e3_o0_TestD2Ev
FN:186,_ZN68RssSceneCreationTestWithRouteEgoSouth2EastOtherEast2North_e3_o0_TestD0Ev
FN:186,_ZN68RssSceneCreationTestWithRouteEgoSouth2EastOtherEast2North_e3_o0_Test8TestBodyEv
FN:186,_ZN68RssSceneCreationTestWithRouteEgoSouth2EastOtherEast2North_e3_o0_TestC2Ev
FN:196,_ZN68RssSceneCreationTestWithRouteEgoSouth2EastOtherEast2North_e3_o1_Test8TestBodyEv
FN:196,_ZN68RssSceneCreationTestWithRouteEgoSouth2EastOtherEast2North_e3_o1_TestC2Ev
FN:196,_ZN68RssSceneCreationTestWithRouteEgoSouth2EastOtherEast2North_e3_o1_TestD0Ev
FN:196,_ZN68RssSceneCreationTestWithRouteEgoSouth2EastOtherEast2North_e3_o1_TestD2Ev
FN:210,_ZN68RssSceneCreationTestWithRouteEgoSouth2EastOtherEast2North_e3_o2_TestD2Ev
FN:210,_ZN68RssSceneCreationTestWithRouteEgoSouth2EastOtherEast2North_e3_o2_Test8TestBodyEv
FN:210,_ZN68RssSceneCreationTestWithRouteEgoSouth2EastOtherEast2North_e3_o2_TestC2Ev
FN:210,_ZN68RssSceneCreationTestWithRouteEgoSouth2EastOtherEast2North_e3_o2_TestD0Ev
FN:220,_ZN68RssSceneCreationTestWithRouteEgoSouth2EastOtherEast2North_e3_o3_TestD0Ev
FN:220,_ZN68RssSceneCreationTestWithRouteEgoSouth2EastOtherEast2North_e3_o3_TestD2Ev
FN:220,_ZN68RssSceneCreationTestWithRouteEgoSouth2EastOtherEast2North_e3_o3_TestC2Ev
FN:220,_ZN68RssSceneCreationTestWithRouteEgoSouth2EastOtherEast2North_e3_o3_Test8TestBodyEv
FN:230,_ZN68RssSceneCreationTestWithRouteEgoSouth2EastOtherEast2North_e3_o4_Test8TestBodyEv
FN:230,_ZN68RssSceneCreationTestWithRouteEgoSouth2EastOtherEast2North_e3_o4_TestC2Ev
FN:230,_ZN68RssSceneCreationTestWithRouteEgoSouth2EastOtherEast2North_e3_o4_TestD0Ev
FN:230,_ZN68RssSceneCreationTestWithRouteEgoSouth2EastOtherEast2North_e3_o4_TestD2Ev
FN:240,_ZN68RssSceneCreationTestWithRouteEgoSouth2EastOtherEast2North_e4_o0_TestD0Ev
FN:240,_ZN68RssSceneCreationTestWithRouteEgoSouth2EastOtherEast2North_e4_o0_Test8TestBodyEv
FN:240,_ZN68RssSceneCreationTestWithRouteEgoSouth2EastOtherEast2North_e4_o0_TestC2Ev
FN:240,_ZN68RssSceneCreationTestWithRouteEgoSouth2EastOtherEast2North_e4_o0_TestD2Ev
FN:250,_ZN68RssSceneCreationTestWithRouteEgoSouth2EastOtherEast2North_e4_o1_TestC2Ev
FN:250,_ZN68RssSceneCreationTestWithRouteEgoSouth2EastOtherEast2North_e4_o1_TestD0Ev
FN:250,_ZN68RssSceneCreationTestWithRouteEgoSouth2EastOtherEast2North_e4_o1_TestD2Ev
FN:250,_ZN68RssSceneCreationTestWithRouteEgoSouth2EastOtherEast2North_e4_o1_Test8TestBodyEv
FN:260,_ZN68RssSceneCreationTestWithRouteEgoSouth2EastOtherEast2North_e4_o2_TestC2Ev
FN:260,_ZN68RssSceneCreationTestWithRouteEgoSouth2EastOtherEast2North_e4_o2_TestD0Ev
FN:260,_ZN68RssSceneCreationTestWithRouteEgoSouth2EastOtherEast2North_e4_o2_Test8TestBodyEv
FN:260,_ZN68RssSceneCreationTestWithRouteEgoSouth2EastOtherEast2North_e4_o2_TestD2Ev
FN:270,_ZN68RssSceneCreationTestWithRouteEgoSouth2EastOtherEast2North_e4_o3_Test8TestBodyEv
FN:270,_ZN68RssSceneCreationTestWithRouteEgoSouth2EastOtherEast2North_e4_o3_TestD0Ev
FN:270,_ZN68RssSceneCreationTestWithRouteEgoSouth2EastOtherEast2North_e4_o3_TestC2Ev
FN:270,_ZN68RssSceneCreationTestWithRouteEgoSouth2EastOtherEast2North_e4_o3_TestD2Ev
FN:280,_ZN68RssSceneCreationTestWithRouteEgoSouth2EastOtherEast2North_e4_o4_TestD2Ev
FN:280,_ZN68RssSceneCreationTestWithRouteEgoSouth2EastOtherEast2North_e4_o4_TestC2Ev
FN:280,_ZN68RssSceneCreationTestWithRouteEgoSouth2EastOtherEast2North_e4_o4_TestD0Ev
FN:280,_ZN68RssSceneCreationTestWithRouteEgoSouth2EastOtherEast2North_e4_o4_Test8TestBodyEv
FN:290,_ZN60RssSceneCreationTestWithoutRouteEgoSouth2EastOtherEast2NorthD0Ev
FN:290,_ZN60RssSceneCreationTestWithoutRouteEgoSouth2EastOtherEast2NorthC2Ev
FN:290,_ZN60RssSceneCreationTestWithoutRouteEgoSouth2EastOtherEast2NorthD2Ev
FN:309,_ZN71RssSceneCreationTestWithoutRouteEgoSouth2EastOtherEast2North_e0_o0_TestC2Ev
FN:309,_ZN71RssSceneCreationTestWithoutRouteEgoSouth2EastOtherEast2North_e0_o0_TestD2Ev
FN:309,_ZN71RssSceneCreationTestWithoutRouteEgoSouth2EastOtherEast2North_e0_o0_Test8TestBodyEv
FN:309,_ZN71RssSceneCreationTestWithoutRouteEgoSouth2EastOtherEast2North_e0_o0_TestD0Ev
FN:336,_ZN71RssSceneCreationTestWithoutRouteEgoSouth2EastOtherEast2North_e2_o0_TestD0Ev
FN:336,_ZN71RssSceneCreationTestWithoutRouteEgoSouth2EastOtherEast2North_e2_o0_Test8TestBodyEv
FN:336,_ZN71RssSceneCreationTestWithoutRouteEgoSouth2EastOtherEast2North_e2_o0_TestD2Ev
FN:336,_ZN71RssSceneCreationTestWithoutRouteEgoSouth2EastOtherEast2North_e2_o0_TestC2Ev
FN:358,_ZN71RssSceneCreationTestWithoutRouteEgoSouth2EastOtherEast2North_e0_o4_TestD0Ev
FN:358,_ZN71RssSceneCreationTestWithoutRouteEgoSouth2EastOtherEast2North_e0_o4_TestD2Ev
FN:358,_ZN71RssSceneCreationTestWithoutRouteEgoSouth2EastOtherEast2North_e0_o4_TestC2Ev
FN:358,_ZN71RssSceneCreationTestWithoutRouteEgoSouth2EastOtherEast2North_e0_o4_Test8TestBodyEv
FN:364,_GLOBAL__sub_I__ZN68RssSceneCreationTestWithRouteEgoSouth2EastOtherEast2North_e0_o0_Test10test_info_E
FN:364,_Z41__static_initialization_and_destruction_0ii
FNDA:0,_ZN57RssSceneCreationTestWithRouteEgoSouth2EastOtherEast2NorthD2Ev
FNDA:0,_ZN57RssSceneCreationTestWithRouteEgoSouth2EastOtherEast2NorthD0Ev
FNDA:0,_ZN57RssSceneCreationTestWithRouteEgoSouth2EastOtherEast2NorthC2Ev
FNDA:0,_ZN68RssSceneCreationTestWithRouteEgoSouth2EastOtherEast2North_e0_o0_Test8TestBodyEv
FNDA:0,_ZN68RssSceneCreationTestWithRouteEgoSouth2EastOtherEast2North_e0_o0_TestD0Ev
FNDA:0,_ZN68RssSceneCreationTestWithRouteEgoSouth2EastOtherEast2North_e0_o0_TestC2Ev
FNDA:0,_ZN68RssSceneCreationTestWithRouteEgoSouth2EastOtherEast2North_e0_o0_TestD2Ev
FNDA:0,_ZN68RssSceneCreationTestWithRouteEgoSouth2EastOtherEast2North_e0_o1_TestD0Ev
FNDA:0,_ZN68RssSceneCreationTestWithRouteEgoSouth2EastOtherEast2North_e0_o1_TestC2Ev
FNDA:0,_ZN68RssSceneCreationTestWithRouteEgoSouth2EastOtherEast2North_e0_o1_TestD2Ev
FNDA:0,_ZN68RssSceneCreationTestWithRouteEgoSouth2EastOtherEast2North_e0_o1_Test8TestBodyEv
FNDA:0,_ZN68RssSceneCreationTestWithRouteEgoSouth2EastOtherEast2North_e0_o2_Test8TestBodyEv
FNDA:0,_ZN68RssSceneCreationTestWithRouteEgoSouth2EastOtherEast2North_e0_o2_TestD0Ev
FNDA:0,_ZN68RssSceneCreationTestWithRouteEgoSouth2EastOtherEast2North_e0_o2_TestC2Ev
FNDA:0,_ZN68RssSceneCreationTestWithRouteEgoSouth2EastOtherEast2North_e0_o2_TestD2Ev
FNDA:0,_ZN68RssSceneCreationTestWithRouteEgoSouth2EastOtherEast2North_e0_o3_TestC2Ev
FNDA:0,_ZN68RssSceneCreationTestWithRouteEgoSouth2EastOtherEast2North_e0_o3_Test8TestBodyEv
FNDA:0,_ZN68RssSceneCreationTestWithRouteEgoSouth2EastOtherEast2North_e0_o3_TestD2Ev
FNDA:0,_ZN68RssSceneCreationTestWithRouteEgoSouth2EastOtherEast2North_e0_o3_TestD0Ev
FNDA:0,_ZN68RssSceneCreationTestWithRouteEgoSouth2EastOtherEast2North_e0_o4_TestD2Ev
FNDA:0,_ZN68RssSceneCreationTestWithRouteEgoSouth2EastOtherEast2North_e0_o4_TestD0Ev
FNDA:0,_ZN68RssSceneCreationTestWithRouteEgoSouth2EastOtherEast2North_e0_o4_TestC2Ev
FNDA:0,_ZN68RssSceneCreationTestWithRouteEgoSouth2EastOtherEast2North_e0_o4_Test8TestBodyEv
FNDA:0,_ZN68RssSceneCreationTestWithRouteEgoSouth2EastOtherEast2North_e1_o0_TestD0Ev
FNDA:0,_ZN68RssSceneCreationTestWithRouteEgoSouth2EastOtherEast2North_e1_o0_TestC2Ev
FNDA:0,_ZN68RssSceneCreationTestWithRouteEgoSouth2EastOtherEast2North_e1_o0_TestD2Ev
FNDA:0,_ZN68RssSceneCreationTestWithRouteEgoSouth2EastOtherEast2North_e1_o0_Test8TestBodyEv
FNDA:0,_ZN68RssSceneCreationTestWithRouteEgoSouth2EastOtherEast2North_e1_o1_TestD0Ev
FNDA:0,_ZN68RssSceneCreationTestWithRouteEgoSouth2EastOtherEast2North_e1_o1_TestC2Ev
FNDA:0,_ZN68RssSceneCreationTestWithRouteEgoSouth2EastOtherEast2North_e1_o1_TestD2Ev
FNDA:0,_ZN68RssSceneCreationTestWithRouteEgoSouth2EastOtherEast2North_e1_o1_Test8TestBodyEv
FNDA:0,_ZN68RssSceneCreationTestWithRouteEgoSouth2EastOtherEast2North_e1_o2_TestD2Ev
FNDA:0,_ZN68RssSceneCreationTestWithRouteEgoSouth2EastOtherEast2North_e1_o2_Test8TestBodyEv
FNDA:0,_ZN68RssSceneCreationTestWithRouteEgoSouth2EastOtherEast2North_e1_o2_TestD0Ev
FNDA:0,_ZN68RssSceneCreationTestWithRouteEgoSouth2EastOtherEast2North_e1_o2_TestC2Ev
FNDA:0,_ZN68RssSceneCreationTestWithRouteEgoSouth2EastOtherEast2North_e1_o3_TestD0Ev
FNDA:0,_ZN68RssSceneCreationTestWithRouteEgoSouth2EastOtherEast2North_e1_o3_TestD2Ev
FNDA:0,_ZN68RssSceneCreationTestWithRouteEgoSouth2EastOtherEast2North_e1_o3_Test8TestBodyEv
FNDA:0,_ZN68RssSceneCreationTestWithRouteEgoSouth2EastOtherEast2North_e1_o3_TestC2Ev
FNDA:0,_ZN68RssSceneCreationTestWithRouteEgoSouth2EastOtherEast2North_e1_o4_TestD2Ev
FNDA:0,_ZN68RssSceneCreationTestWithRouteEgoSouth2EastOtherEast2North_e1_o4_TestC2Ev
FNDA:0,_ZN68RssSceneCreationTestWithRouteEgoSouth2EastOtherEast2North_e1_o4_TestD0Ev
FNDA:0,_ZN68RssSceneCreationTestWithRouteEgoSouth2EastOtherEast2North_e1_o4_Test8TestBodyEv
FNDA:0,_ZN68RssSceneCreationTestWithRouteEgoSouth2EastOtherEast2North_e2_o0_TestD0Ev
FNDA:0,_ZN68RssSceneCreationTestWithRouteEgoSouth2EastOtherEast2North_e2_o0_TestD2Ev
FNDA:0,_ZN68RssSceneCreationTestWithRouteEgoSouth2EastOtherEast2North_e2_o0_TestC2Ev
FNDA:0,_ZN68RssSceneCreationTestWithRouteEgoSouth2EastOtherEast2North_e2_o0_Test8TestBodyEv
FNDA:0,_ZN68RssSceneCreationTestWithRouteEgoSouth2EastOtherEast2North_e2_o1_TestC2Ev
FNDA:0,_ZN68RssSceneCreationTestWithRouteEgoSouth2EastOtherEast2North_e2_o1_TestD0Ev
FNDA:0,_ZN68RssSceneCreationTestWithRouteEgoSouth2EastOtherEast2North_e2_o1_Test8TestBodyEv
FNDA:0,_ZN68RssSceneCreationTestWithRouteEgoSouth2EastOtherEast2North_e2_o1_TestD2Ev
FNDA:0,_ZN68RssSceneCreationTestWithRouteEgoSouth2EastOtherEast2North_e2_o2_TestC2Ev
FNDA:0,_ZN68RssSceneCreationTestWithRouteEgoSouth2EastOtherEast2North_e2_o2_Test8TestBodyEv
FNDA:0,_ZN68RssSceneCreationTestWithRouteEgoSouth2EastOtherEast2North_e2_o2_TestD0Ev
FNDA:0,_ZN68RssSceneCreationTestWithRouteEgoSouth2EastOtherEast2North_e2_o2_TestD2Ev
FNDA:0,_ZN68RssSceneCreationTestWithRouteEgoSouth2EastOtherEast2North_e2_o3_Test8TestBodyEv
FNDA:0,_ZN68RssSceneCreationTestWithRouteEgoSouth2EastOtherEast2North_e2_o3_TestC2Ev
FNDA:0,_ZN68RssSceneCreationTestWithRouteEgoSouth2EastOtherEast2North_e2_o3_TestD0Ev
FNDA:0,_ZN68RssSceneCreationTestWithRouteEgoSouth2EastOtherEast2North_e2_o3_TestD2Ev
FNDA:0,_ZN68RssSceneCreationTestWithRouteEgoSouth2EastOtherEast2North_e2_o4_TestC2Ev
FNDA:0,_ZN68RssSceneCreationTestWithRouteEgoSouth2EastOtherEast2North_e2_o4_TestD2Ev
FNDA:0,_ZN68RssSceneCreationTestWithRouteEgoSouth2EastOtherEast2North_e2_o4_Test8TestBodyEv
FNDA:0,_ZN68RssSceneCreationTestWithRouteEgoSouth2EastOtherEast2North_e2_o4_TestD0Ev
FNDA:0,_ZN68RssSceneCreationTestWithRouteEgoSouth2EastOtherEast2North_e3_o0_TestD2Ev
FNDA:0,_ZN68RssSceneCreationTestWithRouteEgoSouth2EastOtherEast2North_e3_o0_TestD0Ev
FNDA:0,_ZN68RssSceneCreationTestWithRouteEgoSouth2EastOtherEast2North_e3_o0_Test8TestBodyEv
FNDA:0,_ZN68RssSceneCreationTestWithRouteEgoSouth2EastOtherEast2North_e3_o0_TestC2Ev
FNDA:0,_ZN68RssSceneCreationTestWithRouteEgoSouth2EastOtherEast2North_e3_o1_Test8TestBodyEv
FNDA:0,_ZN68RssSceneCreationTestWithRouteEgoSouth2EastOtherEast2North_e3_o1_TestC2Ev
FNDA:0,_ZN68RssSceneCreationTestWithRouteEgoSouth2EastOtherEast2North_e3_o1_TestD0Ev
FNDA:0,_ZN68RssSceneCreationTestWithRouteEgoSouth2EastOtherEast2North_e3_o1_TestD2Ev
FNDA:0,_ZN68RssSceneCreationTestWithRouteEgoSouth2EastOtherEast2North_e3_o2_TestD2Ev
FNDA:0,_ZN68RssSceneCreationTestWithRouteEgoSouth2EastOtherEast2North_e3_o2_Test8TestBodyEv
FNDA:0,_ZN68RssSceneCreationTestWithRouteEgoSouth2EastOtherEast2North_e3_o2_TestC2Ev
FNDA:0,_ZN68RssSceneCreationTestWithRouteEgoSouth2EastOtherEast2North_e3_o2_TestD0Ev
FNDA:0,_ZN68RssSceneCreationTestWithRouteEgoSouth2EastOtherEast2North_e3_o3_TestD0Ev
FNDA:0,_ZN68RssSceneCreationTestWithRouteEgoSouth2EastOtherEast2North_e3_o3_TestD2Ev
FNDA:0,_ZN68RssSceneCreationTestWithRouteEgoSouth2EastOtherEast2North_e3_o3_TestC2Ev
FNDA:0,_ZN68RssSceneCreationTestWithRouteEgoSouth2EastOtherEast2North_e3_o3_Test8TestBodyEv
FNDA:0,_ZN68RssSceneCreationTestWithRouteEgoSouth2EastOtherEast2North_e3_o4_Test8TestBodyEv
FNDA:0,_ZN68RssSceneCreationTestWithRouteEgoSouth2EastOtherEast2North_e3_o4_TestC2Ev
FNDA:0,_ZN68RssSceneCreationTestWithRouteEgoSouth2EastOtherEast2North_e3_o4_TestD0Ev
FNDA:0,_ZN68RssSceneCreationTestWithRouteEgoSouth2EastOtherEast2North_e3_o4_TestD2Ev
FNDA:0,_ZN68RssSceneCreationTestWithRouteEgoSouth2EastOtherEast2North_e4_o0_TestD0Ev
FNDA:0,_ZN68RssSceneCreationTestWithRouteEgoSouth2EastOtherEast2North_e4_o0_Test8TestBodyEv
FNDA:0,_ZN68RssSceneCreationTestWithRouteEgoSouth2EastOtherEast2North_e4_o0_TestC2Ev
FNDA:0,_ZN68RssSceneCreationTestWithRouteEgoSouth2EastOtherEast2North_e4_o0_TestD2Ev
FNDA:0,_ZN68RssSceneCreationTestWithRouteEgoSouth2EastOtherEast2North_e4_o1_TestC2Ev
FNDA:0,_ZN68RssSceneCreationTestWithRouteEgoSouth2EastOtherEast2North_e4_o1_TestD0Ev
FNDA:0,_ZN68RssSceneCreationTestWithRouteEgoSouth2EastOtherEast2North_e4_o1_TestD2Ev
FNDA:0,_ZN68RssSceneCreationTestWithRouteEgoSouth2EastOtherEast2North_e4_o1_Test8TestBodyEv
FNDA:0,_ZN68RssSceneCreationTestWithRouteEgoSouth2EastOtherEast2North_e4_o2_TestC2Ev
FNDA:0,_ZN68RssSceneCreationTestWithRouteEgoSouth2EastOtherEast2North_e4_o2_TestD0Ev
FNDA:0,_ZN68RssSceneCreationTestWithRouteEgoSouth2EastOtherEast2North_e4_o2_Test8TestBodyEv
FNDA:0,_ZN68RssSceneCreationTestWithRouteEgoSouth2EastOtherEast2North_e4_o2_TestD2Ev
FNDA:0,_ZN68RssSceneCreationTestWithRouteEgoSouth2EastOtherEast2North_e4_o3_Test8TestBodyEv
FNDA:0,_ZN68RssSceneCreationTestWithRouteEgoSouth2EastOtherEast2North_e4_o3_TestD0Ev
FNDA:0,_ZN68RssSceneCreationTestWithRouteEgoSouth2EastOtherEast2North_e4_o3_TestC2Ev
FNDA:0,_ZN68RssSceneCreationTestWithRouteEgoSouth2EastOtherEast2North_e4_o3_TestD2Ev
FNDA:0,_ZN68RssSceneCreationTestWithRouteEgoSouth2EastOtherEast2North_e4_o4_TestD2Ev
FNDA:0,_ZN68RssSceneCreationTestWithRouteEgoSouth2EastOtherEast2North_e4_o4_TestC2Ev
FNDA:0,_ZN68RssSceneCreationTestWithRouteEgoSouth2EastOtherEast2North_e4_o4_TestD0Ev
FNDA:0,_ZN68RssSceneCreationTestWithRouteEgoSouth2EastOtherEast2North_e4_o4_Test8TestBodyEv
FNDA:0,_ZN60RssSceneCreationTestWithoutRouteEgoSouth2EastOtherEast2NorthD0Ev
FNDA:0,_ZN60RssSceneCreationTestWithoutRouteEgoSouth2EastOtherEast2NorthC2Ev
FNDA:0,_ZN60RssSceneCreationTestWithoutRouteEgoSouth2EastOtherEast2NorthD2Ev
FNDA:0,_ZN71RssSceneCreationTestWithoutRouteEgoSouth2EastOtherEast2North_e0_o0_TestC2Ev
FNDA:0,_ZN71RssSceneCreationTestWithoutRouteEgoSouth2EastOtherEast2North_e0_o0_TestD2Ev
FNDA:0,_ZN71RssSceneCreationTestWithoutRouteEgoSouth2EastOtherEast2North_e0_o0_Test8TestBodyEv
FNDA:0,_ZN71RssSceneCreationTestWithoutRouteEgoSouth2EastOtherEast2North_e0_o0_TestD0Ev
FNDA:0,_ZN71RssSceneCreationTestWithoutRouteEgoSouth2EastOtherEast2North_e2_o0_TestD0Ev
FNDA:0,_ZN71RssSceneCreationTestWithoutRouteEgoSouth2EastOtherEast2North_e2_o0_Test8TestBodyEv
FNDA:0,_ZN71RssSceneCreationTestWithoutRouteEgoSouth2EastOtherEast2North_e2_o0_TestD2Ev
FNDA:0,_ZN71RssSceneCreationTestWithoutRouteEgoSouth2EastOtherEast2North_e2_o0_TestC2Ev
FNDA:0,_ZN71RssSceneCreationTestWithoutRouteEgoSouth2EastOtherEast2North_e0_o4_TestD0Ev
FNDA:0,_ZN71RssSceneCreationTestWithoutRouteEgoSouth2EastOtherEast2North_e0_o4_TestD2Ev
FNDA:0,_ZN71RssSceneCreationTestWithoutRouteEgoSouth2EastOtherEast2North_e0_o4_TestC2Ev
FNDA:0,_ZN71RssSceneCreationTestWithoutRouteEgoSouth2EastOtherEast2North_e0_o4_Test8TestBodyEv
FNDA:0,_GLOBAL__sub_I__ZN68RssSceneCreationTestWithRouteEgoSouth2EastOtherEast2North_e0_o0_Test10test_info_E
FNDA:0,_Z41__static_initialization_and_destruction_0ii
FNF:120
FNH:0
DA:11,0
DA:30,0
DA:32,0
DA:33,0
DA:34,0
DA:37,0
DA:38,0
DA:39,0
DA:41,0
DA:43,0
DA:44,0
DA:45,0
DA:48,0
DA:49,0
DA:50,0
DA:52,0
DA:54,0
DA:55,0
DA:56,0
DA:59,0
DA:60,0
DA:62,0
DA:64,0
DA:65,0
DA:66,0
DA:69,0
DA:70,0
DA:72,0
DA:74,0
DA:75,0
DA:76,0
DA:79,0
DA:80,0
DA:82,0
DA:84,0
DA:85,0
DA:86,0
DA:89,0
DA:90,0
DA:91,0
DA:93,0
DA:95,0
DA:96,0
DA:97,0
DA:100,0
DA:101,0
DA:102,0
DA:104,0
DA:106,0
DA:107,0
DA:108,0
DA:111,0
DA:112,0
DA:114,0
DA:116,0
DA:117,0
DA:118,0
DA:121,0
DA:122,0
DA:124,0
DA:126,0
DA:127,0
DA:128,0
DA:131,0
DA:132,0
DA:134,0
DA:136,0
DA:137,0
DA:138,0
DA:141,0
DA:142,0
DA:143,0
DA:145,0
DA:147,0
DA:148,0
DA:149,0
DA:152,0
DA:153,0
DA:154,0
DA:156,0
DA:158,0
DA:159,0
DA:160,0
DA:163,0
DA:164,0
DA:166,0
DA:168,0
DA:169,0
DA:170,0
DA:173,0
DA:174,0
DA:176,0
DA:178,0
DA:179,0
DA:180,0
DA:183,0
DA:184,0
DA:186,0
DA:188,0
DA:189,0
DA:190,0
DA:193,0
DA:194,0
DA:196,0
DA:198,0
DA:199,0
DA:200,0
DA:206,0
DA:207,0
DA:208,0
DA:210,0
DA:212,0
DA:213,0
DA:214,0
DA:217,0
DA:218,0
DA:220,0
DA:222,0
DA:223,0
DA:224,0
DA:227,0
DA:228,0
DA:230,0
DA:232,0
DA:233,0
DA:234,0
DA:237,0
DA:238,0
DA:240,0
DA:242,0
DA:243,0
DA:244,0
DA:247,0
DA:248,0
DA:250,0
DA:252,0
DA:253,0
DA:254,0
DA:257,0
DA:258,0
DA:260,0
DA:262,0
DA:263,0
DA:264,0
DA:267,0
DA:268,0
DA:270,0
DA:272,0
DA:273,0
DA:274,0
DA:277,0
DA:278,0
DA:280,0
DA:282,0
DA:283,0
DA:284,0
DA:287,0
DA:288,0
DA:290,0
DA:309,0
DA:311,0
DA:312,0
DA:313,0
DA:317,0
DA:318,0
DA:321,0
DA:325,0
DA:329,0
DA:332,0
DA:333,0
DA:334,0
DA:336,0
DA:338,0
DA:339,0
DA:340,0
DA:344,0
DA:345,0
DA:350,0
DA:354,0
DA:355,0
DA:356,0
DA:358,0
DA:360,0
DA:361,0
DA:362,0
DA:363,0
DA:364,0
LF:187
LH:0
end_of_record
TN:
SF:/home/runner/work/ad-rss-lib/ad-rss-lib/ad_rss_map_integration/impl/include/ad/rss/map/RssObjectData.hpp
FN:34,_ZN2ad3rss3map13RssObjectDataD2Ev
FN:34,_ZN2ad3rss3map13RssObjectDataC2Ev
FNDA:0,_ZN2ad3rss3map13RssObjectDataD2Ev
FNDA:0,_ZN2ad3rss3map13RssObjectDataC2Ev
FNF:2
FNH:0
DA:34,0
LF:1
LH:0
end_of_record
SF:/home/runner/work/ad-rss-lib/ad-rss-lib/ad_rss_map_integration/impl/include/ad/rss/map/RssSceneCreation.hpp
FN:53,_ZN2ad3rss3map16RssSceneCreationD2Ev
FNDA:0,_ZN2ad3rss3map16RssSceneCreationD2Ev
FNF:1
FNH:0
DA:53,0
LF:1
LH:0
end_of_record
SF:/home/runner/work/ad-rss-lib/ad-rss-lib/ad_rss_map_integration/impl/tests/RssSceneCreationTest.hpp
FN:25,_ZN20RssSceneCreationTestC2Ev
FN:25,_ZN20RssSceneCreationTestD2Ev
FN:25,_ZN20RssSceneCreationTestD0Ev
FN:47,_ZN20RssSceneCreationTest23getUnstructuredSettingsEv
FN:58,_ZN20RssSceneCreationTest21getEgoVehicleDynamicsEN2ad7physics5SpeedE
FN:80,_ZN20RssSceneCreationTest24getObjectVehicleDynamicsEN2ad7physics5SpeedE
FN:111,_ZN20RssSceneCreationTest7initMapEv
FN:145,_ZN20RssSceneCreationTest5SetUpEv
FN:153,_ZN20RssSceneCreationTest8TearDownEv
FN:157,_ZN20RssSceneCreationTest19initializeObjectGeoERKSt5tupleIJN2ad3map5point9LongitudeENS3_8LatitudeEdEERNS2_5match6ObjectE
FN:166,_ZN20RssSceneCreationTest19initializeObjectENUERKN2ad3map5point8ENUPointERKNS2_10ENUHeadingERNS1_5match6ObjectE
FN:189,_ZN20RssSceneCreationTest17checkSceneResultsERKN2ad3rss5world10WorldModelERKmRKSt6vectorISt5tupleIJNS1_9situation13SituationTypeEmmNS0_7physics5SpeedEEESaISE_EE
FN:206,_ZZN20RssSceneCreationTest17checkSceneResultsERKN2ad3rss5world10WorldModelERKmRKSt6vectorISt5tupleIJNS1_9situation13SituationTypeEmmNS0_7physics5SpeedEEESaISE_EEENUlRKSE_E_D2Ev
FN:206,_ZZN20RssSceneCreationTest17checkSceneResultsERKN2ad3rss5world10WorldModelERKmRKSt6vectorISt5tupleIJNS1_9situation13SituationTypeEmmNS0_7physics5SpeedEEESaISE_EEENUlRKSE_E_C2ERKSL_
FN:206,_ZZN20RssSceneCreationTest17checkSceneResultsERKN2ad3rss5world10WorldModelERKmRKSt6vectorISt5tupleIJNS1_9situation13SituationTypeEmmNS0_7physics5SpeedEEESaISE_EEENKUlRKSE_E_clESK_
FN:227,_ZN20RssSceneCreationTest15shortenEgoRouteERKSt5tupleIJN2ad3map5point9LongitudeENS3_8LatitudeEdEE
FN:240,_ZN20RssSceneCreationTest16performSceneTestERKSt5tupleIJN2ad3map5point9LongitudeENS3_8LatitudeEdEES8_RKSt6vectorIS0_IJNS1_3rss9situation13SituationTypeEmmNS1_7physics5SpeedEEESaISF_EE
FN:303,_ZN26RssSceneCreationTestTown01D2Ev
FN:303,_ZN26RssSceneCreationTestTown01D0Ev
FN:303,_ZN26RssSceneCreationTestTown01C2Ev
FN:305,_ZN26RssSceneCreationTestTown0112getMapToLoadEv
FN:310,_ZN26RssSceneCreationTestTown0120initializeEgoVehicleEv
FN:351,_ZN26RssSceneCreationTestTown0121locationSouthIncomingEv
FN:358,_ZN26RssSceneCreationTestTown0121locationSouthEnteringEv
FN:364,_ZN26RssSceneCreationTestTown0118locationSouth2EastEv
FN:370,_ZN26RssSceneCreationTestTown0119locationEastExitingEv
FN:376,_ZN26RssSceneCreationTestTown0120locationEastOutgoingEv
FN:421,_ZN26RssSceneCreationTestTown0121locationNorthIncomingEv
FN:427,_ZN26RssSceneCreationTestTown0121locationNorthEnteringEv
FN:440,_ZN26RssSceneCreationTestTown0119locationNorth2SouthEv
FN:453,_ZN26RssSceneCreationTestTown0120locationSouthExitingEv
FN:459,_ZN26RssSceneCreationTestTown0121locationSouthOutgoingEv
FN:466,_ZN29RssSceneCreationTestWithRouteD2Ev
FN:466,_ZN29RssSceneCreationTestWithRouteD0Ev
FN:466,_ZN29RssSceneCreationTestWithRouteC2Ev
FN:468,_ZN29RssSceneCreationTestWithRoute11getTestModeEv
FN:474,_ZN32RssSceneCreationTestWithoutRouteC2Ev
FN:474,_ZN32RssSceneCreationTestWithoutRouteD0Ev
FN:474,_ZN32RssSceneCreationTestWithoutRouteD2Ev
FN:476,_ZN32RssSceneCreationTestWithoutRoute11getTestModeEv
FNDA:0,_ZN20RssSceneCreationTestC2Ev
FNDA:0,_ZN20RssSceneCreationTestD2Ev
FNDA:0,_ZN20RssSceneCreationTestD0Ev
FNDA:0,_ZN20RssSceneCreationTest23getUnstructuredSettingsEv
FNDA:0,_ZN20RssSceneCreationTest21getEgoVehicleDynamicsEN2ad7physics5SpeedE
FNDA:0,_ZN20RssSceneCreationTest24getObjectVehicleDynamicsEN2ad7physics5SpeedE
FNDA:0,_ZN20RssSceneCreationTest7initMapEv
FNDA:0,_ZN20RssSceneCreationTest5SetUpEv
FNDA:0,_ZN20RssSceneCreationTest8TearDownEv
FNDA:0,_ZN20RssSceneCreationTest19initializeObjectGeoERKSt5tupleIJN2ad3map5point9LongitudeENS3_8LatitudeEdEERNS2_5match6ObjectE
FNDA:0,_ZN20RssSceneCreationTest19initializeObjectENUERKN2ad3map5point8ENUPointERKNS2_10ENUHeadingERNS1_5match6ObjectE
FNDA:0,_ZN20RssSceneCreationTest17checkSceneResultsERKN2ad3rss5world10WorldModelERKmRKSt6vectorISt5tupleIJNS1_9situation13SituationTypeEmmNS0_7physics5SpeedEEESaISE_EE
FNDA:0,_ZZN20RssSceneCreationTest17checkSceneResultsERKN2ad3rss5world10WorldModelERKmRKSt6vectorISt5tupleIJNS1_9situation13SituationTypeEmmNS0_7physics5SpeedEEESaISE_EEENUlRKSE_E_D2Ev
FNDA:0,_ZZN20RssSceneCreationTest17checkSceneResultsERKN2ad3rss5world10WorldModelERKmRKSt6vectorISt5tupleIJNS1_9situation13SituationTypeEmmNS0_7physics5SpeedEEESaISE_EEENUlRKSE_E_C2ERKSL_
FNDA:0,_ZZN20RssSceneCreationTest17checkSceneResultsERKN2ad3rss5world10WorldModelERKmRKSt6vectorISt5tupleIJNS1_9situation13SituationTypeEmmNS0_7physics5SpeedEEESaISE_EEENKUlRKSE_E_clESK_
FNDA:0,_ZN20RssSceneCreationTest15shortenEgoRouteERKSt5tupleIJN2ad3map5point9LongitudeENS3_8LatitudeEdEE
FNDA:0,_ZN20RssSceneCreationTest16performSceneTestERKSt5tupleIJN2ad3map5point9LongitudeENS3_8LatitudeEdEES8_RKSt6vectorIS0_IJNS1_3rss9situation13SituationTypeEmmNS1_7physics5SpeedEEESaISF_EE
FNDA:0,_ZN26RssSceneCreationTestTown01D2Ev
FNDA:0,_ZN26RssSceneCreationTestTown01D0Ev
FNDA:0,_ZN26RssSceneCreationTestTown01C2Ev
FNDA:0,_ZN26RssSceneCreationTestTown0112getMapToLoadEv
FNDA:0,_ZN26RssSceneCreationTestTown0120initializeEgoVehicleEv
FNDA:0,_ZN26RssSceneCreationTestTown0121locationSouthIncomingEv
FNDA:0,_ZN26RssSceneCreationTestTown0121locationSouthEnteringEv
FNDA:0,_ZN26RssSceneCreationTestTown0118locationSouth2EastEv
FNDA:0,_ZN26RssSceneCreationTestTown0119locationEastExitingEv
FNDA:0,_ZN26RssSceneCreationTestTown0120locationEastOutgoingEv
FNDA:0,_ZN26RssSceneCreationTestTown0121locationNorthIncomingEv
FNDA:0,_ZN26RssSceneCreationTestTown0121locationNorthEnteringEv
FNDA:0,_ZN26RssSceneCreationTestTown0119locationNorth2SouthEv
FNDA:0,_ZN26RssSceneCreationTestTown0120locationSouthExitingEv
FNDA:0,_ZN26RssSceneCreationTestTown0121locationSouthOutgoingEv
FNDA:0,_ZN29RssSceneCreationTestWithRouteD2Ev
FNDA:0,_ZN29RssSceneCreationTestWithRouteD0Ev
FNDA:0,_ZN29RssSceneCreationTestWithRouteC2Ev
FNDA:0,_ZN29RssSceneCreationTestWithRoute11getTestModeEv
FNDA:0,_ZN32RssSceneCreationTestWithoutRouteC2Ev
FNDA:0,_ZN32RssSceneCreationTestWithoutRouteD0Ev
FNDA:0,_ZN32RssSceneCreationTestWithoutRouteD2Ev
FNDA:0,_ZN32RssSceneCreationTestWithoutRoute11getTestModeEv
FNF:40
FNH:0
DA:25,0
DA:47,0
DA:49,0
DA:50,0
DA:51,0
DA:52,0
DA:53,0
DA:54,0
DA:55,0
DA:58,0
DA:61,0
DA:62,0
DA:63,0
DA:65,0
DA:66,0
DA:67,0
DA:68,0
DA:70,0
DA:72,0
DA:73,0
DA:75,0
DA:77,0
DA:80,0
DA:83,0
DA:84,0
DA:85,0
DA:87,0
DA:88,0
DA:89,0
DA:90,0
DA:92,0
DA:94,0
DA:95,0
DA:97,0
DA:99,0
DA:111,0
DA:115,0
DA:116,0
DA:118,0
DA:119,0
DA:123,0
DA:124,0
DA:127,0
DA:129,0
DA:130,0
DA:132,0
DA:136,0
DA:137,0
DA:139,0
DA:145,0
DA:149,0
DA:150,0
DA:151,0
DA:153,0
DA:155,0
DA:157,0
DA:159,0
DA:160,0
DA:161,0
DA:162,0
DA:163,0
DA:164,0
DA:166,0
DA:170,0
DA:171,0
DA:172,0
DA:173,0
DA:174,0
DA:175,0
DA:177,0
DA:179,0
DA:181,0
DA:183,0
DA:189,0
DA:193,0
DA:194,0
DA:196,0
DA:197,0
DA:199,0
DA:200,0
DA:201,0
DA:202,0
DA:206,0
DA:207,0
DA:208,0
DA:209,0
DA:210,0
DA:211,0
DA:212,0
DA:214,0
DA:218,0
DA:221,0
DA:222,0
DA:223,0
DA:224,0
DA:227,0
DA:229,0
DA:231,0
DA:233,0
DA:235,0
DA:236,0
DA:240,0
DA:244,0
DA:246,0
DA:247,0
DA:249,0
DA:250,0
DA:251,0
DA:252,0
DA:254,0
DA:256,0
DA:258,0
DA:259,0
DA:260,0
DA:262,0
DA:263,0
DA:266,0
DA:267,0
DA:268,0
DA:269,0
DA:270,0
DA:271,0
DA:272,0
DA:273,0
DA:275,0
DA:276,0
DA:277,0
DA:278,0
DA:279,0
DA:280,0
DA:281,0
DA:282,0
DA:284,0
DA:289,0
DA:291,0
DA:292,0
DA:293,0
DA:303,0
DA:305,0
DA:307,0
DA:310,0
DA:314,0
DA:316,0
DA:318,0
DA:319,0
DA:320,0
DA:325,0
DA:327,0
DA:329,0
DA:331,0
DA:332,0
DA:351,0
DA:355,0
DA:358,0
DA:361,0
DA:364,0
DA:367,0
DA:370,0
DA:373,0
DA:376,0
DA:380,0
DA:421,0
DA:424,0
DA:427,0
DA:430,0
DA:440,0
DA:443,0
DA:453,0
DA:456,0
DA:459,0
DA:462,0
DA:466,0
DA:468,0
DA:470,0
DA:474,0
DA:476,0
DA:478,0
LF:177
LH:0
end_of_record
SF:/home/runner/work/ad-rss-lib/ad-rss-lib/ad_rss_map_integration/impl/tests/RssSceneCreationTestEgoSouth2EastOtherNorth2South.cpp
FN:11,_ZN58RssSceneCreationTestWithRouteEgoSouth2EastOtherNorth2SouthD0Ev
FN:11,_ZN58RssSceneCreationTestWithRouteEgoSouth2EastOtherNorth2SouthC2Ev
FN:11,_ZN58RssSceneCreationTestWithRouteEgoSouth2EastOtherNorth2SouthD2Ev
FN:30,_ZN69RssSceneCreationTestWithRouteEgoSouth2EastOtherNorth2South_e0_o0_TestD2Ev
FN:30,_ZN69RssSceneCreationTestWithRouteEgoSouth2EastOtherNorth2South_e0_o0_TestC2Ev
FN:30,_ZN69RssSceneCreationTestWithRouteEgoSouth2EastOtherNorth2South_e0_o0_Test8TestBodyEv
FN:30,_ZN69RssSceneCreationTestWithRouteEgoSouth2EastOtherNorth2South_e0_o0_TestD0Ev
FN:43,_ZN69RssSceneCreationTestWithRouteEgoSouth2EastOtherNorth2South_e0_o1_Test8TestBodyEv
FN:43,_ZN69RssSceneCreationTestWithRouteEgoSouth2EastOtherNorth2South_e0_o1_TestC2Ev
FN:43,_ZN69RssSceneCreationTestWithRouteEgoSouth2EastOtherNorth2South_e0_o1_TestD2Ev
FN:43,_ZN69RssSceneCreationTestWithRouteEgoSouth2EastOtherNorth2South_e0_o1_TestD0Ev
FN:56,_ZN69RssSceneCreationTestWithRouteEgoSouth2EastOtherNorth2South_e0_o2_TestD0Ev
FN:56,_ZN69RssSceneCreationTestWithRouteEgoSouth2EastOtherNorth2South_e0_o2_TestD2Ev
FN:56,_ZN69RssSceneCreationTestWithRouteEgoSouth2EastOtherNorth2South_e0_o2_TestC2Ev
FN:56,_ZN69RssSceneCreationTestWithRouteEgoSouth2EastOtherNorth2South_e0_o2_Test8TestBodyEv
FN:67,_ZN69RssSceneCreationTestWithRouteEgoSouth2EastOtherNorth2South_e0_o3_Test8TestBodyEv
FN:67,_ZN69RssSceneCreationTestWithRouteEgoSouth2EastOtherNorth2South_e0_o3_TestD0Ev
FN:67,_ZN69RssSceneCreationTestWithRouteEgoSouth2EastOtherNorth2South_e0_o3_TestD2Ev
FN:67,_ZN69RssSceneCreationTestWithRouteEgoSouth2EastOtherNorth2South_e0_o3_TestC2Ev
FN:77,_ZN69RssSceneCreationTestWithRouteEgoSouth2EastOtherNorth2South_e0_o4_Test8TestBodyEv
FN:77,_ZN69RssSceneCreationTestWithRouteEgoSouth2EastOtherNorth2South_e0_o4_TestD2Ev
FN:77,_ZN69RssSceneCreationTestWithRouteEgoSouth2EastOtherNorth2South_e0_o4_TestC2Ev
FN:77,_ZN69RssSceneCreationTestWithRouteEgoSouth2EastOtherNorth2South_e0_o4_TestD0Ev
FN:87,_ZN69RssSceneCreationTestWithRouteEgoSouth2EastOtherNorth2South_e1_o0_TestD0Ev
FN:87,_ZN69RssSceneCreationTestWithRouteEgoSouth2EastOtherNorth2South_e1_o0_TestD2Ev
FN:87,_ZN69RssSceneCreationTestWithRouteEgoSouth2EastOtherNorth2South_e1_o0_TestC2Ev
FN:87,_ZN69RssSceneCreationTestWithRouteEgoSouth2EastOtherNorth2South_e1_o0_Test8TestBodyEv
FN:100,_ZN69RssSceneCreationTestWithRouteEgoSouth2EastOtherNorth2South_e1_o1_Test8TestBodyEv
FN:100,_ZN69RssSceneCreationTestWithRouteEgoSouth2EastOtherNorth2South_e1_o1_TestD0Ev
FN:100,_ZN69RssSceneCreationTestWithRouteEgoSouth2EastOtherNorth2South_e1_o1_TestD2Ev
FN:100,_ZN69RssSceneCreationTestWithRouteEgoSouth2EastOtherNorth2South_e1_o1_TestC2Ev
FN:113,_ZN69RssSceneCreationTestWithRouteEgoSouth2EastOtherNorth2South_e1_o2_TestC2Ev
FN:113,_ZN69RssSceneCreationTestWithRouteEgoSouth2EastOtherNorth2South_e1_o2_TestD0Ev
FN:113,_ZN69RssSceneCreationTestWithRouteEgoSouth2EastOtherNorth2South_e1_o2_TestD2Ev
FN:113,_ZN69RssSceneCreationTestWithRouteEgoSouth2EastOtherNorth2South_e1_o2_Test8TestBodyEv
FN:124,_ZN69RssSceneCreationTestWithRouteEgoSouth2EastOtherNorth2South_e1_o3_TestD0Ev
FN:124,_ZN69RssSceneCreationTestWithRouteEgoSouth2EastOtherNorth2South_e1_o3_TestD2Ev
FN:124,_ZN69RssSceneCreationTestWithRouteEgoSouth2EastOtherNorth2South_e1_o3_TestC2Ev
FN:124,_ZN69RssSceneCreationTestWithRouteEgoSouth2EastOtherNorth2South_e1_o3_Test8TestBodyEv
FN:136,_ZN69RssSceneCreationTestWithRouteEgoSouth2EastOtherNorth2South_e1_o4_Test8TestBodyEv
FN:136,_ZN69RssSceneCreationTestWithRouteEgoSouth2EastOtherNorth2South_e1_o4_TestD0Ev
FN:136,_ZN69RssSceneCreationTestWithRouteEgoSouth2EastOtherNorth2South_e1_o4_TestD2Ev
FN:136,_ZN69RssSceneCreationTestWithRouteEgoSouth2EastOtherNorth2South_e1_o4_TestC2Ev
FN:146,_ZN69RssSceneCreationTestWithRouteEgoSouth2EastOtherNorth2South_e2_o0_TestD0Ev
FN:146,_ZN69RssSceneCreationTestWithRouteEgoSouth2EastOtherNorth2South_e2_o0_Test8TestBodyEv
FN:146,_ZN69RssSceneCreationTestWithRouteEgoSouth2EastOtherNorth2South_e2_o0_TestD2Ev
FN:146,_ZN69RssSceneCreationTestWithRouteEgoSouth2EastOtherNorth2South_e2_o0_TestC2Ev
FN:159,_ZN69RssSceneCreationTestWithRouteEgoSouth2EastOtherNorth2South_e2_o1_Test8TestBodyEv
FN:159,_ZN69RssSceneCreationTestWithRouteEgoSouth2EastOtherNorth2South_e2_o1_TestC2Ev
FN:159,_ZN69RssSceneCreationTestWithRouteEgoSouth2EastOtherNorth2South_e2_o1_TestD2Ev
FN:159,_ZN69RssSceneCreationTestWithRouteEgoSouth2EastOtherNorth2South_e2_o1_TestD0Ev
FN:172,_ZN69RssSceneCreationTestWithRouteEgoSouth2EastOtherNorth2South_e2_o2_TestC2Ev
FN:172,_ZN69RssSceneCreationTestWithRouteEgoSouth2EastOtherNorth2South_e2_o2_TestD2Ev
FN:172,_ZN69RssSceneCreationTestWithRouteEgoSouth2EastOtherNorth2South_e2_o2_TestD0Ev
FN:172,_ZN69RssSceneCreationTestWithRouteEgoSouth2EastOtherNorth2South_e2_o2_Test8TestBodyEv
FN:183,_ZN69RssSceneCreationTestWithRouteEgoSouth2EastOtherNorth2South_e2_o3_TestD0Ev
FN:183,_ZN69RssSceneCreationTestWithRouteEgoSouth2EastOtherNorth2South_e2_o3_TestD2Ev
FN:183,_ZN69RssSceneCreationTestWithRouteEgoSouth2EastOtherNorth2South_e2_o3_TestC2Ev
FN:183,_ZN69RssSceneCreationTestWithRouteEgoSouth2EastOtherNorth2South_e2_o3_Test8TestBodyEv
FN:193,_ZN69RssSceneCreationTestWithRouteEgoSouth2EastOtherNorth2South_e2_o4_TestD0Ev
FN:193,_ZN69RssSceneCreationTestWithRouteEgoSouth2EastOtherNorth2South_e2_o4_TestC2Ev
FN:193,_ZN69RssSceneCreationTestWithRouteEgoSouth2EastOtherNorth2South_e2_o4_Test8TestBodyEv
FN:193,_ZN69RssSceneCreationTestWithRouteEgoSouth2EastOtherNorth2South_e2_o4_TestD2Ev
FN:203,_ZN69RssSceneCreationTestWithRouteEgoSouth2EastOtherNorth2South_e3_o0_Test8TestBodyEv
FN:203,_ZN69RssSceneCreationTestWithRouteEgoSouth2EastOtherNorth2South_e3_o0_TestD2Ev
FN:203,_ZN69RssSceneCreationTestWithRouteEgoSouth2EastOtherNorth2South_e3_o0_TestC2Ev
FN:203,_ZN69RssSceneCreationTestWithRouteEgoSouth2EastOtherNorth2South_e3_o0_TestD0Ev
FN:213,_ZN69RssSceneCreationTestWithRouteEgoSouth2EastOtherNorth2South_e3_o1_TestD2Ev
FN:213,_ZN69RssSceneCreationTestWithRouteEgoSouth2EastOtherNorth2South_e3_o1_TestC2Ev
FN:213,_ZN69RssSceneCreationTestWithRouteEgoSouth2EastOtherNorth2South_e3_o1_Test8TestBodyEv
FN:213,_ZN69RssSceneCreationTestWithRouteEgoSouth2EastOtherNorth2South_e3_o1_TestD0Ev
FN:223,_ZN69RssSceneCreationTestWithRouteEgoSouth2EastOtherNorth2South_e3_o2_Test8TestBodyEv
FN:223,_ZN69RssSceneCreationTestWithRouteEgoSouth2EastOtherNorth2South_e3_o2_TestD2Ev
FN:223,_ZN69RssSceneCreationTestWithRouteEgoSouth2EastOtherNorth2South_e3_o2_TestD0Ev
FN:223,_ZN69RssSceneCreationTestWithRouteEgoSouth2EastOtherNorth2South_e3_o2_TestC2Ev
FN:233,_ZN69RssSceneCreationTestWithRouteEgoSouth2EastOtherNorth2South_e3_o3_TestD2Ev
FN:233,_ZN69RssSceneCreationTestWithRouteEgoSouth2EastOtherNorth2South_e3_o3_TestC2Ev
FN:233,_ZN69RssSceneCreationTestWithRouteEgoSouth2EastOtherNorth2South_e3_o3_Test8TestBodyEv
FN:233,_ZN69RssSceneCreationTestWithRouteEgoSouth2EastOtherNorth2South_e3_o3_TestD0Ev
FN:243,_ZN69RssSceneCreationTestWithRouteEgoSouth2EastOtherNorth2South_e3_o4_Test8TestBodyEv
FN:243,_ZN69RssSceneCreationTestWithRouteEgoSouth2EastOtherNorth2South_e3_o4_TestC2Ev
FN:243,_ZN69RssSceneCreationTestWithRouteEgoSouth2EastOtherNorth2South_e3_o4_TestD2Ev
FN:243,_ZN69RssSceneCreationTestWithRouteEgoSouth2EastOtherNorth2South_e3_o4_TestD0Ev
FN:253,_ZN69RssSceneCreationTestWithRouteEgoSouth2EastOtherNorth2South_e4_o0_TestD2Ev
FN:253,_ZN69RssSceneCreationTestWithRouteEgoSouth2EastOtherNorth2South_e4_o0_TestC2Ev
FN:253,_ZN69RssSceneCreationTestWithRouteEgoSouth2EastOtherNorth2South_e4_o0_TestD0Ev
FN:253,_ZN69RssSceneCreationTestWithRouteEgoSouth2EastOtherNorth2South_e4_o0_Test8TestBodyEv
FN:263,_ZN69RssSceneCreationTestWithRouteEgoSouth2EastOtherNorth2South_e4_o1_Test8TestBodyEv
FN:263,_ZN69RssSceneCreationTestWithRouteEgoSouth2EastOtherNorth2South_e4_o1_TestC2Ev
FN:263,_ZN69RssSceneCreationTestWithRouteEgoSouth2EastOtherNorth2South_e4_o1_TestD2Ev
FN:263,_ZN69RssSceneCreationTestWithRouteEgoSouth2EastOtherNorth2South_e4_o1_TestD0Ev
FN:273,_ZN69RssSceneCreationTestWithRouteEgoSouth2EastOtherNorth2South_e4_o2_TestD2Ev
FN:273,_ZN69RssSceneCreationTestWithRouteEgoSouth2EastOtherNorth2South_e4_o2_TestD0Ev
FN:273,_ZN69RssSceneCreationTestWithRouteEgoSouth2EastOtherNorth2South_e4_o2_TestC2Ev
FN:273,_ZN69RssSceneCreationTestWithRouteEgoSouth2EastOtherNorth2South_e4_o2_Test8TestBodyEv
FN:283,_ZN69RssSceneCreationTestWithRouteEgoSouth2EastOtherNorth2South_e4_o3_TestD2Ev
FN:283,_ZN69RssSceneCreationTestWithRouteEgoSouth2EastOtherNorth2South_e4_o3_TestC2Ev
FN:283,_ZN69RssSceneCreationTestWithRouteEgoSouth2EastOtherNorth2South_e4_o3_TestD0Ev
FN:283,_ZN69RssSceneCreationTestWithRouteEgoSouth2EastOtherNorth2South_e4_o3_Test8TestBodyEv
FN:293,_ZN69RssSceneCreationTestWithRouteEgoSouth2EastOtherNorth2South_e4_o4_TestD2Ev
FN:293,_ZN69RssSceneCreationTestWithRouteEgoSouth2EastOtherNorth2South_e4_o4_TestC2Ev
FN:293,_ZN69RssSceneCreationTestWithRouteEgoSouth2EastOtherNorth2South_e4_o4_Test8TestBodyEv
FN:293,_ZN69RssSceneCreationTestWithRouteEgoSouth2EastOtherNorth2South_e4_o4_TestD0Ev
FN:303,_ZN61RssSceneCreationTestWithoutRouteEgoSouth2EastOtherNorth2SouthD2Ev
FN:303,_ZN61RssSceneCreationTestWithoutRouteEgoSouth2EastOtherNorth2SouthC2Ev
FN:303,_ZN61RssSceneCreationTestWithoutRouteEgoSouth2EastOtherNorth2SouthD0Ev
FN:322,_ZN72RssSceneCreationTestWithoutRouteEgoSouth2EastOtherNorth2South_e0_o0_TestD2Ev
FN:322,_ZN72RssSceneCreationTestWithoutRouteEgoSouth2EastOtherNorth2South_e0_o0_Test8TestBodyEv
FN:322,_ZN72RssSceneCreationTestWithoutRouteEgoSouth2EastOtherNorth2South_e0_o0_TestD0Ev
FN:322,_ZN72RssSceneCreationTestWithoutRouteEgoSouth2EastOtherNorth2South_e0_o0_TestC2Ev
FN:341,_ZN72RssSceneCreationTestWithoutRouteEgoSouth2EastOtherNorth2South_e2_o0_TestD2Ev
FN:341,_ZN72RssSceneCreationTestWithoutRouteEgoSouth2EastOtherNorth2South_e2_o0_TestD0Ev
FN:341,_ZN72RssSceneCreationTestWithoutRouteEgoSouth2EastOtherNorth2South_e2_o0_Test8TestBodyEv
FN:341,_ZN72RssSceneCreationTestWithoutRouteEgoSouth2EastOtherNorth2South_e2_o0_TestC2Ev
FN:360,_ZN72RssSceneCreationTestWithoutRouteEgoSouth2EastOtherNorth2South_e0_o4_TestC2Ev
FN:360,_ZN72RssSceneCreationTestWithoutRouteEgoSouth2EastOtherNorth2South_e0_o4_TestD2Ev
FN:360,_ZN72RssSceneCreationTestWithoutRouteEgoSouth2EastOtherNorth2South_e0_o4_TestD0Ev
FN:360,_ZN72RssSceneCreationTestWithoutRouteEgoSouth2EastOtherNorth2South_e0_o4_Test8TestBodyEv
FN:368,_Z41__static_initialization_and_destruction_0ii
FN:368,_GLOBAL__sub_I__ZN69RssSceneCreationTestWithRouteEgoSouth2EastOtherNorth2South_e0_o0_Test10test_info_E
FNDA:0,_ZN58RssSceneCreationTestWithRouteEgoSouth2EastOtherNorth2SouthD0Ev
FNDA:0,_ZN58RssSceneCreationTestWithRouteEgoSouth2EastOtherNorth2SouthC2Ev
FNDA:0,_ZN58RssSceneCreationTestWithRouteEgoSouth2EastOtherNorth2SouthD2Ev
FNDA:0,_ZN69RssSceneCreationTestWithRouteEgoSouth2EastOtherNorth2South_e0_o0_TestD2Ev
FNDA:0,_ZN69RssSceneCreationTestWithRouteEgoSouth2EastOtherNorth2South_e0_o0_TestC2Ev
FNDA:0,_ZN69RssSceneCreationTestWithRouteEgoSouth2EastOtherNorth2South_e0_o0_Test8TestBodyEv
FNDA:0,_ZN69RssSceneCreationTestWithRouteEgoSouth2EastOtherNorth2South_e0_o0_TestD0Ev
FNDA:0,_ZN69RssSceneCreationTestWithRouteEgoSouth2EastOtherNorth2South_e0_o1_Test8TestBodyEv
FNDA:0,_ZN69RssSceneCreationTestWithRouteEgoSouth2EastOtherNorth2South_e0_o1_TestC2Ev
FNDA:0,_ZN69RssSceneCreationTestWithRouteEgoSouth2EastOtherNorth2South_e0_o1_TestD2Ev
FNDA:0,_ZN69RssSceneCreationTestWithRouteEgoSouth2EastOtherNorth2South_e0_o1_TestD0Ev
FNDA:0,_ZN69RssSceneCreationTestWithRouteEgoSouth2EastOtherNorth2South_e0_o2_TestD0Ev
FNDA:0,_ZN69RssSceneCreationTestWithRouteEgoSouth2EastOtherNorth2South_e0_o2_TestD2Ev
FNDA:0,_ZN69RssSceneCreationTestWithRouteEgoSouth2EastOtherNorth2South_e0_o2_TestC2Ev
FNDA:0,_ZN69RssSceneCreationTestWithRouteEgoSouth2EastOtherNorth2South_e0_o2_Test8TestBodyEv
FNDA:0,_ZN69RssSceneCreationTestWithRouteEgoSouth2EastOtherNorth2South_e0_o3_Test8TestBodyEv
FNDA:0,_ZN69RssSceneCreationTestWithRouteEgoSouth2EastOtherNorth2South_e0_o3_TestD0Ev
FNDA:0,_ZN69RssSceneCreationTestWithRouteEgoSouth2EastOtherNorth2South_e0_o3_TestD2Ev
FNDA:0,_ZN69RssSceneCreationTestWithRouteEgoSouth2EastOtherNorth2South_e0_o3_TestC2Ev
FNDA:0,_ZN69RssSceneCreationTestWithRouteEgoSouth2EastOtherNorth2South_e0_o4_Test8TestBodyEv
FNDA:0,_ZN69RssSceneCreationTestWithRouteEgoSouth2EastOtherNorth2South_e0_o4_TestD2Ev
FNDA:0,_ZN69RssSceneCreationTestWithRouteEgoSouth2EastOtherNorth2South_e0_o4_TestC2Ev
FNDA:0,_ZN69RssSceneCreationTestWithRouteEgoSouth2EastOtherNorth2South_e0_o4_TestD0Ev
FNDA:0,_ZN69RssSceneCreationTestWithRouteEgoSouth2EastOtherNorth2South_e1_o0_TestD0Ev
FNDA:0,_ZN69RssSceneCreationTestWithRouteEgoSouth2EastOtherNorth2South_e1_o0_TestD2Ev
FNDA:0,_ZN69RssSceneCreationTestWithRouteEgoSouth2EastOtherNorth2South_e1_o0_TestC2Ev
FNDA:0,_ZN69RssSceneCreationTestWithRouteEgoSouth2EastOtherNorth2South_e1_o0_Test8TestBodyEv
FNDA:0,_ZN69RssSceneCreationTestWithRouteEgoSouth2EastOtherNorth2South_e1_o1_Test8TestBodyEv
FNDA:0,_ZN69RssSceneCreationTestWithRouteEgoSouth2EastOtherNorth2South_e1_o1_TestD0Ev
FNDA:0,_ZN69RssSceneCreationTestWithRouteEgoSouth2EastOtherNorth2South_e1_o1_TestD2Ev
FNDA:0,_ZN69RssSceneCreationTestWithRouteEgoSouth2EastOtherNorth2South_e1_o1_TestC2Ev
FNDA:0,_ZN69RssSceneCreationTestWithRouteEgoSouth2EastOtherNorth2South_e1_o2_TestC2Ev
FNDA:0,_ZN69RssSceneCreationTestWithRouteEgoSouth2EastOtherNorth2South_e1_o2_TestD0Ev
FNDA:0,_ZN69RssSceneCreationTestWithRouteEgoSouth2EastOtherNorth2South_e1_o2_TestD2Ev
FNDA:0,_ZN69RssSceneCreationTestWithRouteEgoSouth2EastOtherNorth2South_e1_o2_Test8TestBodyEv
FNDA:0,_ZN69RssSceneCreationTestWithRouteEgoSouth2EastOtherNorth2South_e1_o3_TestD0Ev
FNDA:0,_ZN69RssSceneCreationTestWithRouteEgoSouth2EastOtherNorth2South_e1_o3_TestD2Ev
FNDA:0,_ZN69RssSceneCreationTestWithRouteEgoSouth2EastOtherNorth2South_e1_o3_TestC2Ev
FNDA:0,_ZN69RssSceneCreationTestWithRouteEgoSouth2EastOtherNorth2South_e1_o3_Test8TestBodyEv
FNDA:0,_ZN69RssSceneCreationTestWithRouteEgoSouth2EastOtherNorth2South_e1_o4_Test8TestBodyEv
FNDA:0,_ZN69RssSceneCreationTestWithRouteEgoSouth2EastOtherNorth2South_e1_o4_TestD0Ev
FNDA:0,_ZN69RssSceneCreationTestWithRouteEgoSouth2EastOtherNorth2South_e1_o4_TestD2Ev
FNDA:0,_ZN69RssSceneCreationTestWithRouteEgoSouth2EastOtherNorth2South_e1_o4_TestC2Ev
FNDA:0,_ZN69RssSceneCreationTestWithRouteEgoSouth2EastOtherNorth2South_e2_o0_TestD0Ev
FNDA:0,_ZN69RssSceneCreationTestWithRouteEgoSouth2EastOtherNorth2South_e2_o0_Test8TestBodyEv
FNDA:0,_ZN69RssSceneCreationTestWithRouteEgoSouth2EastOtherNorth2South_e2_o0_TestD2Ev
FNDA:0,_ZN69RssSceneCreationTestWithRouteEgoSouth2EastOtherNorth2South_e2_o0_TestC2Ev
FNDA:0,_ZN69RssSceneCreationTestWithRouteEgoSouth2EastOtherNorth2South_e2_o1_Test8TestBodyEv
FNDA:0,_ZN69RssSceneCreationTestWithRouteEgoSouth2EastOtherNorth2South_e2_o1_TestC2Ev
FNDA:0,_ZN69RssSceneCreationTestWithRouteEgoSouth2EastOtherNorth2South_e2_o1_TestD2Ev
FNDA:0,_ZN69RssSceneCreationTestWithRouteEgoSouth2EastOtherNorth2South_e2_o1_TestD0Ev
FNDA:0,_ZN69RssSceneCreationTestWithRouteEgoSouth2EastOtherNorth2South_e2_o2_TestC2Ev
FNDA:0,_ZN69RssSceneCreationTestWithRouteEgoSouth2EastOtherNorth2South_e2_o2_TestD2Ev
FNDA:0,_ZN69RssSceneCreationTestWithRouteEgoSouth2EastOtherNorth2South_e2_o2_TestD0Ev
FNDA:0,_ZN69RssSceneCreationTestWithRouteEgoSouth2EastOtherNorth2South_e2_o2_Test8TestBodyEv
FNDA:0,_ZN69RssSceneCreationTestWithRouteEgoSouth2EastOtherNorth2South_e2_o3_TestD0Ev
FNDA:0,_ZN69RssSceneCreationTestWithRouteEgoSouth2EastOtherNorth2South_e2_o3_TestD2Ev
FNDA:0,_ZN69RssSceneCreationTestWithRouteEgoSouth2EastOtherNorth2South_e2_o3_TestC2Ev
FNDA:0,_ZN69RssSceneCreationTestWithRouteEgoSouth2EastOtherNorth2South_e2_o3_Test8TestBodyEv
FNDA:0,_ZN69RssSceneCreationTestWithRouteEgoSouth2EastOtherNorth2South_e2_o4_TestD0Ev
FNDA:0,_ZN69RssSceneCreationTestWithRouteEgoSouth2EastOtherNorth2South_e2_o4_TestC2Ev
FNDA:0,_ZN69RssSceneCreationTestWithRouteEgoSouth2EastOtherNorth2South_e2_o4_Test8TestBodyEv
FNDA:0,_ZN69RssSceneCreationTestWithRouteEgoSouth2EastOtherNorth2South_e2_o4_TestD2Ev
FNDA:0,_ZN69RssSceneCreationTestWithRouteEgoSouth2EastOtherNorth2South_e3_o0_Test8TestBodyEv
FNDA:0,_ZN69RssSceneCreationTestWithRouteEgoSouth2EastOtherNorth2South_e3_o0_TestD2Ev
FNDA:0,_ZN69RssSceneCreationTestWithRouteEgoSouth2EastOtherNorth2South_e3_o0_TestC2Ev
FNDA:0,_ZN69RssSceneCreationTestWithRouteEgoSouth2EastOtherNorth2South_e3_o0_TestD0Ev
FNDA:0,_ZN69RssSceneCreationTestWithRouteEgoSouth2EastOtherNorth2South_e3_o1_TestD2Ev
FNDA:0,_ZN69RssSceneCreationTestWithRouteEgoSouth2EastOtherNorth2South_e3_o1_TestC2Ev
FNDA:0,_ZN69RssSceneCreationTestWithRouteEgoSouth2EastOtherNorth2South_e3_o1_Test8TestBodyEv
FNDA:0,_ZN69RssSceneCreationTestWithRouteEgoSouth2EastOtherNorth2South_e3_o1_TestD0Ev
FNDA:0,_ZN69RssSceneCreationTestWithRouteEgoSouth2EastOtherNorth2South_e3_o2_Test8TestBodyEv
FNDA:0,_ZN69RssSceneCreationTestWithRouteEgoSouth2EastOtherNorth2South_e3_o2_TestD2Ev
FNDA:0,_ZN69RssSceneCreationTestWithRouteEgoSouth2EastOtherNorth2South_e3_o2_TestD0Ev
FNDA:0,_ZN69RssSceneCreationTestWithRouteEgoSouth2EastOtherNorth2South_e3_o2_TestC2Ev
FNDA:0,_ZN69RssSceneCreationTestWithRouteEgoSouth2EastOtherNorth2South_e3_o3_TestD2Ev
FNDA:0,_ZN69RssSceneCreationTestWithRouteEgoSouth2EastOtherNorth2South_e3_o3_TestC2Ev
FNDA:0,_ZN69RssSceneCreationTestWithRouteEgoSouth2EastOtherNorth2South_e3_o3_Test8TestBodyEv
FNDA:0,_ZN69RssSceneCreationTestWithRouteEgoSouth2EastOtherNorth2South_e3_o3_TestD0Ev
FNDA:0,_ZN69RssSceneCreationTestWithRouteEgoSouth2EastOtherNorth2South_e3_o4_Test8TestBodyEv
FNDA:0,_ZN69RssSceneCreationTestWithRouteEgoSouth2EastOtherNorth2South_e3_o4_TestC2Ev
FNDA:0,_ZN69RssSceneCreationTestWithRouteEgoSouth2EastOtherNorth2South_e3_o4_TestD2Ev
FNDA:0,_ZN69RssSceneCreationTestWithRouteEgoSouth2EastOtherNorth2South_e3_o4_TestD0Ev
FNDA:0,_ZN69RssSceneCreationTestWithRouteEgoSouth2EastOtherNorth2South_e4_o0_TestD2Ev
FNDA:0,_ZN69RssSceneCreationTestWithRouteEgoSouth2EastOtherNorth2South_e4_o0_TestC2Ev
FNDA:0,_ZN69RssSceneCreationTestWithRouteEgoSouth2EastOtherNorth2South_e4_o0_TestD0Ev
FNDA:0,_ZN69RssSceneCreationTestWithRouteEgoSouth2EastOtherNorth2South_e4_o0_Test8TestBodyEv
FNDA:0,_ZN69RssSceneCreationTestWithRouteEgoSouth2EastOtherNorth2South_e4_o1_Test8TestBodyEv
FNDA:0,_ZN69RssSceneCreationTestWithRouteEgoSouth2EastOtherNorth2South_e4_o1_TestC2Ev
FNDA:0,_ZN69RssSceneCreationTestWithRouteEgoSouth2EastOtherNorth2South_e4_o1_TestD2Ev
FNDA:0,_ZN69RssSceneCreationTestWithRouteEgoSouth2EastOtherNorth2South_e4_o1_TestD0Ev
FNDA:0,_ZN69RssSceneCreationTestWithRouteEgoSouth2EastOtherNorth2South_e4_o2_TestD2Ev
FNDA:0,_ZN69RssSceneCreationTestWithRouteEgoSouth2EastOtherNorth2South_e4_o2_TestD0Ev
FNDA:0,_ZN69RssSceneCreationTestWithRouteEgoSouth2EastOtherNorth2South_e4_o2_TestC2Ev
FNDA:0,_ZN69RssSceneCreationTestWithRouteEgoSouth2EastOtherNorth2South_e4_o2_Test8TestBodyEv
FNDA:0,_ZN69RssSceneCreationTestWithRouteEgoSouth2EastOtherNorth2South_e4_o3_TestD2Ev
FNDA:0,_ZN69RssSceneCreationTestWithRouteEgoSouth2EastOtherNorth2South_e4_o3_TestC2Ev
FNDA:0,_ZN69RssSceneCreationTestWithRouteEgoSouth2EastOtherNorth2South_e4_o3_TestD0Ev
FNDA:0,_ZN69RssSceneCreationTestWithRouteEgoSouth2EastOtherNorth2South_e4_o3_Test8TestBodyEv
FNDA:0,_ZN69RssSceneCreationTestWithRouteEgoSouth2EastOtherNorth2South_e4_o4_TestD2Ev
FNDA:0,_ZN69RssSceneCreationTestWithRouteEgoSouth2EastOtherNorth2South_e4_o4_TestC2Ev
FNDA:0,_ZN69RssSceneCreationTestWithRouteEgoSouth2EastOtherNorth2South_e4_o4_Test8TestBodyEv
FNDA:0,_ZN69RssSceneCreationTestWithRouteEgoSouth2EastOtherNorth2South_e4_o4_TestD0Ev
FNDA:0,_ZN61RssSceneCreationTestWithoutRouteEgoSouth2EastOtherNorth2SouthD2Ev
FNDA:0,_ZN61RssSceneCreationTestWithoutRouteEgoSouth2EastOtherNorth2SouthC2Ev
FNDA:0,_ZN61RssSceneCreationTestWithoutRouteEgoSouth2EastOtherNorth2SouthD0Ev
FNDA:0,_ZN72RssSceneCreationTestWithoutRouteEgoSouth2EastOtherNorth2South_e0_o0_TestD2Ev
FNDA:0,_ZN72RssSceneCreationTestWithoutRouteEgoSouth2EastOtherNorth2South_e0_o0_Test8TestBodyEv
FNDA:0,_ZN72RssSceneCreationTestWithoutRouteEgoSouth2EastOtherNorth2South_e0_o0_TestD0Ev
FNDA:0,_ZN72RssSceneCreationTestWithoutRouteEgoSouth2EastOtherNorth2South_e0_o0_TestC2Ev
FNDA:0,_ZN72RssSceneCreationTestWithoutRouteEgoSouth2EastOtherNorth2South_e2_o0_TestD2Ev
FNDA:0,_ZN72RssSceneCreationTestWithoutRouteEgoSouth2EastOtherNorth2South_e2_o0_TestD0Ev
FNDA:0,_ZN72RssSceneCreationTestWithoutRouteEgoSouth2EastOtherNorth2South_e2_o0_Test8TestBodyEv
FNDA:0,_ZN72RssSceneCreationTestWithoutRouteEgoSouth2EastOtherNorth2South_e2_o0_TestC2Ev
FNDA:0,_ZN72RssSceneCreationTestWithoutRouteEgoSouth2EastOtherNorth2South_e0_o4_TestC2Ev
FNDA:0,_ZN72RssSceneCreationTestWithoutRouteEgoSouth2EastOtherNorth2South_e0_o4_TestD2Ev
FNDA:0,_ZN72RssSceneCreationTestWithoutRouteEgoSouth2EastOtherNorth2South_e0_o4_TestD0Ev
FNDA:0,_ZN72RssSceneCreationTestWithoutRouteEgoSouth2EastOtherNorth2South_e0_o4_Test8TestBodyEv
FNDA:0,_Z41__static_initialization_and_destruction_0ii
FNDA:0,_GLOBAL__sub_I__ZN69RssSceneCreationTestWithRouteEgoSouth2EastOtherNorth2South_e0_o0_Test10test_info_E
FNF:120
FNH:0
DA:11,0
DA:30,0
DA:32,0
DA:33,0
DA:34,0
DA:37,0
DA:40,0
DA:41,0
DA:43,0
DA:45,0
DA:46,0
DA:47,0
DA:50,0
DA:53,0
DA:54,0
DA:56,0
DA:58,0
DA:59,0
DA:60,0
DA:63,0
DA:64,0
DA:65,0
DA:67,0
DA:69,0
DA:70,0
DA:71,0
DA:74,0
DA:75,0
DA:77,0
DA:79,0
DA:80,0
DA:81,0
DA:84,0
DA:85,0
DA:87,0
DA:89,0
DA:90,0
DA:91,0
DA:94,0
DA:97,0
DA:98,0
DA:100,0
DA:102,0
DA:103,0
DA:104,0
DA:107,0
DA:110,0
DA:111,0
DA:113,0
DA:115,0
DA:116,0
DA:117,0
DA:120,0
DA:121,0
DA:122,0
DA:124,0
DA:126,0
DA:127,0
DA:128,0
DA:132,0
DA:133,0
DA:134,0
DA:136,0
DA:138,0
DA:139,0
DA:140,0
DA:143,0
DA:144,0
DA:146,0
DA:148,0
DA:149,0
DA:150,0
DA:153,0
DA:156,0
DA:157,0
DA:159,0
DA:161,0
DA:162,0
DA:163,0
DA:166,0
DA:169,0
DA:170,0
DA:172,0
DA:174,0
DA:175,0
DA:176,0
DA:179,0
DA:180,0
DA:181,0
DA:183,0
DA:185,0
DA:186,0
DA:187,0
DA:190,0
DA:191,0
DA:193,0
DA:195,0
DA:196,0
DA:197,0
DA:200,0
DA:201,0
DA:203,0
DA:205,0
DA:206,0
DA:207,0
DA:210,0
DA:211,0
DA:213,0
DA:215,0
DA:216,0
DA:217,0
DA:220,0
DA:221,0
DA:223,0
DA:225,0
DA:226,0
DA:227,0
DA:230,0
DA:231,0
DA:233,0
DA:235,0
DA:236,0
DA:237,0
DA:240,0
DA:241,0
DA:243,0
DA:245,0
DA:246,0
DA:247,0
DA:250,0
DA:251,0
DA:253,0
DA:255,0
DA:256,0
DA:257,0
DA:260,0
DA:261,0
DA:263,0
DA:265,0
DA:266,0
DA:267,0
DA:270,0
DA:271,0
DA:273,0
DA:275,0
DA:276,0
DA:277,0
DA:280,0
DA:281,0
DA:283,0
DA:285,0
DA:286,0
DA:287,0
DA:290,0
DA:291,0
DA:293,0
DA:295,0
DA:296,0
DA:297,0
DA:300,0
DA:301,0
DA:303,0
DA:322,0
DA:324,0
DA:325,0
DA:326,0
DA:330,0
DA:333,0
DA:335,0
DA:338,0
DA:339,0
DA:341,0
DA:343,0
DA:344,0
DA:345,0
DA:349,0
DA:352,0
DA:354,0
DA:357,0
DA:358,0
DA:360,0
DA:362,0
DA:363,0
DA:364,0
DA:367,0
DA:368,0
LF:186
LH:0
end_of_record
TN:
SF:/home/runner/work/ad-rss-lib/ad-rss-lib/ad_rss_map_integration/impl/include/ad/rss/map/RssObjectConversion.hpp
FN:67,_ZN2ad3rss3map19RssObjectConversionC2ERKS2_
FN:77,_ZN2ad3rss3map19RssObjectConversionD2Ev
FN:153,_ZNK2ad3rss3map19RssObjectConversion22getOriginalObjectSpeedEv
FNDA:0,_ZN2ad3rss3map19RssObjectConversionC2ERKS2_
FNDA:0,_ZN2ad3rss3map19RssObjectConversionD2Ev
FNDA:0,_ZNK2ad3rss3map19RssObjectConversion22getOriginalObjectSpeedEv
FNF:3
FNH:0
DA:67,0
DA:77,0
DA:153,0
DA:155,0
LF:4
LH:0
end_of_record
SF:/home/runner/work/ad-rss-lib/ad-rss-lib/ad_rss_map_integration/impl/include/ad/rss/map/RssObjectData.hpp
FN:34,_ZN2ad3rss3map13RssObjectDataD2Ev
FN:34,_ZN2ad3rss3map13RssObjectDataC2Ev
FNDA:0,_ZN2ad3rss3map13RssObjectDataD2Ev
FNDA:0,_ZN2ad3rss3map13RssObjectDataC2Ev
FNF:2
FNH:0
DA:34,0
LF:1
LH:0
end_of_record
SF:/home/runner/work/ad-rss-lib/ad-rss-lib/ad_rss_map_integration/impl/include/ad/rss/map/RssSceneCreator.hpp
FN:146,_ZN2ad3rss3map15RssSceneCreator22getRightBorderObjectIdEv
FN:154,_ZN2ad3rss3map15RssSceneCreator21getLeftBorderObjectIdEv
FNDA:0,_ZN2ad3rss3map15RssSceneCreator22getRightBorderObjectIdEv
FNDA:0,_ZN2ad3rss3map15RssSceneCreator21getLeftBorderObjectIdEv
FNF:2
FNH:0
DA:146,0
DA:148,0
DA:154,0
DA:156,0
LF:4
LH:0
end_of_record
SF:/home/runner/work/ad-rss-lib/ad-rss-lib/ad_rss_map_integration/impl/src/RssSceneCreator.cpp
FN:27,_ZN2ad3rss3map15RssSceneCreatorC2ERKNS1_16RssSceneCreation22RestrictSpeedLimitModeERKSt3setINS_3map8landmark10LandmarkIdESt4lessISA_ESaISA_EERS3_
FN:50,_ZN2ad3rss3map15RssSceneCreatorC2ERNS1_16RssSceneCreationE
FN:57,_ZN2ad3rss3map15RssSceneCreator14createRoadAreaERKNS_3map5route9FullRouteEiiRKSt3setINS3_4lane6LaneIdESt4lessISA_ESaISA_EESt6vectorISt10shared_ptrINS1_19RssObjectConversionEESaISK_EE
FN:131,_ZN2ad3rss3map15RssSceneCreator22appendNotRelevantSceneERKNS_3map5route9FullRouteESt10shared_ptrIKNS1_19RssObjectConversionEESB_
FN:178,_ZN2ad3rss3map15RssSceneCreator29createNonIntersectionRoadAreaERKNS_3map5route9FullRouteESt6vectorISt10shared_ptrINS1_19RssObjectConversionEESaISB_EE
FN:189,_ZN2ad3rss3map15RssSceneCreator26appendNonIntersectionSceneERKNS_3map5route15ConnectingRouteERKNS0_9situation13SituationTypeESt10shared_ptrIKNS1_19RssObjectConversionEESF_
FN:242,_ZN2ad3rss3map15RssSceneCreator21createMergingRoadAreaERKNS_3map5route9FullRouteESt10shared_ptrINS1_19RssObjectConversionEE
FN:259,_ZN2ad3rss3map15RssSceneCreator18appendMergingSceneERKNS_3map5route15ConnectingRouteERKNS0_9situation13SituationTypeESt10shared_ptrIKNS1_19RssObjectConversionEESF_
FN:305,_ZN2ad3rss3map15RssSceneCreator26createIntersectionRoadAreaERKNS_3map5route9FullRouteESt10shared_ptrIKNS3_12intersection12IntersectionEES8_INS1_19RssObjectConversionEE
FN:313,_ZN2ad3rss3map15RssSceneCreator23appendIntersectionSceneESt10shared_ptrINS_3map12intersection12IntersectionEERKNS4_5route9FullRouteESB_SB_S3_IKNS1_19RssObjectConversionEESE_
FN:428,_ZN2ad3rss3map15RssSceneCreator24appendRoadBoundaryScenesERKNS_3map5route9FullRouteESt10shared_ptrIKNS1_19RssObjectConversionEE
FN:577,_ZN2ad3rss3map15RssSceneCreator11appendSceneERKNS0_9situation13SituationTypeESt10shared_ptrIKNS1_19RssObjectConversionEERKSt6vectorISB_INS0_5world11LaneSegmentESaISD_EESaISF_EESA_SJ_
FN:642,_ZN2ad3rss3map15RssSceneCreator23appendUnstructuredSceneESt10shared_ptrIKNS1_19RssObjectConversionEES6_
FN:677,_GLOBAL__sub_I_RssSceneCreator.cpp
FN:677,_Z41__static_initialization_and_destruction_0ii
FNDA:0,_ZN2ad3rss3map15RssSceneCreatorC2ERKNS1_16RssSceneCreation22RestrictSpeedLimitModeERKSt3setINS_3map8landmark10LandmarkIdESt4lessISA_ESaISA_EERS3_
FNDA:0,_ZN2ad3rss3map15RssSceneCreatorC2ERNS1_16RssSceneCreationE
FNDA:0,_ZN2ad3rss3map15RssSceneCreator14createRoadAreaERKNS_3map5route9FullRouteEiiRKSt3setINS3_4lane6LaneIdESt4lessISA_ESaISA_EESt6vectorISt10shared_ptrINS1_19RssObjectConversionEESaISK_EE
FNDA:0,_ZN2ad3rss3map15RssSceneCreator22appendNotRelevantSceneERKNS_3map5route9FullRouteESt10shared_ptrIKNS1_19RssObjectConversionEESB_
FNDA:0,_ZN2ad3rss3map15RssSceneCreator29createNonIntersectionRoadAreaERKNS_3map5route9FullRouteESt6vectorISt10shared_ptrINS1_19RssObjectConversionEESaISB_EE
FNDA:0,_ZN2ad3rss3map15RssSceneCreator26appendNonIntersectionSceneERKNS_3map5route15ConnectingRouteERKNS0_9situation13SituationTypeESt10shared_ptrIKNS1_19RssObjectConversionEESF_
FNDA:0,_ZN2ad3rss3map15RssSceneCreator21createMergingRoadAreaERKNS_3map5route9FullRouteESt10shared_ptrINS1_19RssObjectConversionEE
FNDA:0,_ZN2ad3rss3map15RssSceneCreator18appendMergingSceneERKNS_3map5route15ConnectingRouteERKNS0_9situation13SituationTypeESt10shared_ptrIKNS1_19RssObjectConversionEESF_
FNDA:0,_ZN2ad3rss3map15RssSceneCreator26createIntersectionRoadAreaERKNS_3map5route9FullRouteESt10shared_ptrIKNS3_12intersection12IntersectionEES8_INS1_19RssObjectConversionEE
FNDA:0,_ZN2ad3rss3map15RssSceneCreator23appendIntersectionSceneESt10shared_ptrINS_3map12intersection12IntersectionEERKNS4_5route9FullRouteESB_SB_S3_IKNS1_19RssObjectConversionEESE_
FNDA:0,_ZN2ad3rss3map15RssSceneCreator24appendRoadBoundaryScenesERKNS_3map5route9FullRouteESt10shared_ptrIKNS1_19RssObjectConversionEE
FNDA:0,_ZN2ad3rss3map15RssSceneCreator11appendSceneERKNS0_9situation13SituationTypeESt10shared_ptrIKNS1_19RssObjectConversionEERKSt6vectorISB_INS0_5world11LaneSegmentESaISD_EESaISF_EESA_SJ_
FNDA:0,_ZN2ad3rss3map15RssSceneCreator23appendUnstructuredSceneESt10shared_ptrIKNS1_19RssObjectConversionEES6_
FNDA:0,_GLOBAL__sub_I_RssSceneCreator.cpp
FNDA:0,_Z41__static_initialization_and_destruction_0ii
FNF:15
FNH:0
DA:27,0
DA:31,0
DA:33,0
DA:36,0
DA:37,0
DA:39,0
DA:40,0
DA:42,0
DA:43,0
DA:46,0
DA:47,0
DA:49,0
DA:50,0
DA:53,0
DA:55,0
DA:57,0
DA:63,0
DA:64,0
DA:65,0
DA:66,0
DA:69,0
DA:72,0
DA:73,0
DA:76,0
DA:78,0
DA:79,0
DA:80,0
DA:82,0
DA:83,0
DA:87,0
DA:90,0
DA:91,0
DA:93,0
DA:95,0
DA:97,0
DA:101,0
DA:103,0
DA:105,0
DA:106,0
DA:108,0
DA:110,0
DA:112,0
DA:115,0
DA:118,0
DA:120,0
DA:122,0
DA:124,0
DA:126,0
DA:128,0
DA:131,0
DA:135,0
DA:137,0
DA:138,0
DA:140,0
DA:141,0
DA:143,0
DA:144,0
DA:145,0
DA:147,0
DA:148,0
DA:150,0
DA:152,0
DA:153,0
DA:158,0
DA:159,0
DA:164,0
DA:167,0
DA:168,0
DA:169,0
DA:171,0
DA:175,0
DA:178,0
DA:182,0
DA:183,0
DA:186,0
DA:189,0
DA:194,0
DA:196,0
DA:197,0
DA:199,0
DA:200,0
DA:202,0
DA:204,0
DA:205,0
DA:207,0
DA:208,0
DA:210,0
DA:212,0
DA:213,0
DA:216,0
DA:217,0
DA:219,0
DA:221,0
DA:223,0
DA:227,0
DA:229,0
DA:231,0
DA:232,0
DA:234,0
DA:235,0
DA:237,0
DA:239,0
DA:242,0
DA:246,0
DA:247,0
DA:248,0
DA:251,0
DA:256,0
DA:259,0
DA:264,0
DA:266,0
DA:267,0
DA:269,0
DA:271,0
DA:272,0
DA:274,0
DA:275,0
DA:278,0
DA:279,0
DA:281,0
DA:282,0
DA:283,0
DA:285,0
DA:286,0
DA:288,0
DA:289,0
DA:290,0
DA:293,0
DA:294,0
DA:295,0
DA:297,0
DA:300,0
DA:301,0
DA:305,0
DA:310,0
DA:313,0
DA:320,0
DA:322,0
DA:323,0
DA:325,0
DA:326,0
DA:328,0
DA:330,0
DA:331,0
DA:333,0
DA:334,0
DA:336,0
DA:338,0
DA:339,0
DA:342,0
DA:343,0
DA:346,0
DA:347,0
DA:349,0
DA:351,0
DA:352,0
DA:353,0
DA:355,0
DA:357,0
DA:360,0
DA:361,0
DA:365,0
DA:367,0
DA:369,0
DA:373,0
DA:378,0
DA:380,0
DA:384,0
DA:387,0
DA:389,0
DA:391,0
DA:393,0
DA:395,0
DA:397,0
DA:401,0
DA:406,0
DA:408,0
DA:412,0
DA:416,0
DA:417,0
DA:418,0
DA:420,0
DA:423,0
DA:425,0
DA:428,0
DA:431,0
DA:433,0
DA:434,0
DA:436,0
DA:437,0
DA:439,0
DA:440,0
DA:444,0
DA:446,0
DA:448,0
DA:449,0
DA:450,0
DA:451,0
DA:452,0
DA:453,0
DA:454,0
DA:455,0
DA:456,0
DA:457,0
DA:458,0
DA:459,0
DA:460,0
DA:461,0
DA:463,0
DA:464,0
DA:466,0
DA:468,0
DA:470,0
DA:471,0
DA:472,0
DA:473,0
DA:474,0
DA:475,0
DA:476,0
DA:478,0
DA:480,0
DA:481,0
DA:482,0
DA:483,0
DA:484,0
DA:485,0
DA:488,0
DA:489,0
DA:490,0
DA:491,0
DA:493,0
DA:497,0
DA:499,0
DA:500,0
DA:501,0
DA:503,0
DA:504,0
DA:505,0
DA:506,0
DA:508,0
DA:509,0
DA:510,0
DA:511,0
DA:512,0
DA:513,0
DA:514,0
DA:515,0
DA:517,0
DA:518,0
DA:520,0
DA:521,0
DA:522,0
DA:525,0
DA:526,0
DA:527,0
DA:528,0
DA:530,0
DA:534,0
DA:536,0
DA:537,0
DA:538,0
DA:540,0
DA:541,0
DA:542,0
DA:543,0
DA:545,0
DA:546,0
DA:547,0
DA:548,0
DA:549,0
DA:550,0
DA:551,0
DA:552,0
DA:554,0
DA:555,0
DA:557,0
DA:558,0
DA:559,0
DA:562,0
DA:566,0
DA:568,0
DA:572,0
DA:574,0
DA:577,0
DA:583,0
DA:585,0
DA:586,0
DA:589,0
DA:590,0
DA:591,0
DA:592,0
DA:593,0
DA:594,0
DA:595,0
DA:596,0
DA:598,0
DA:599,0
DA:601,0
DA:604,0
DA:605,0
DA:607,0
DA:609,0
DA:610,0
DA:611,0
DA:613,0
DA:615,0
DA:616,0
DA:617,0
DA:618,0
DA:619,0
DA:621,0
DA:623,0
DA:624,0
DA:625,0
DA:626,0
DA:627,0
DA:631,0
DA:633,0
DA:637,0
DA:638,0
DA:642,0
DA:645,0
DA:647,0
DA:648,0
DA:650,0
DA:651,0
DA:653,0
DA:655,0
DA:656,0
DA:658,0
DA:659,0
DA:661,0
DA:663,0
DA:664,0
DA:667,0
DA:669,0
DA:673,0
DA:677,0
LF:338
LH:0
end_of_record
TN:
SF:/home/runner/work/ad-rss-lib/ad-rss-lib/ad_rss_map_integration/impl/include/ad/rss/map/RssObjectConversion.hpp
FN:77,_ZN2ad3rss3map19RssObjectConversionD2Ev
FN:126,_ZNK2ad3rss3map19RssObjectConversion27getObjectMapMatchedPositionEv
FNDA:0,_ZN2ad3rss3map19RssObjectConversionD2Ev
FNDA:0,_ZNK2ad3rss3map19RssObjectConversion27getObjectMapMatchedPositionEv
FNF:2
FNH:0
DA:77,0
DA:126,0
DA:128,0
LF:3
LH:0
end_of_record
SF:/home/runner/work/ad-rss-lib/ad-rss-lib/ad_rss_map_integration/impl/include/ad/rss/map/RssSceneCreator.hpp
FN:68,_ZN2ad3rss3map15RssSceneCreatorD2Ev
FNDA:0,_ZN2ad3rss3map15RssSceneCreatorD2Ev
FNF:1
FNH:0
DA:68,0
LF:1
LH:0
end_of_record
SF:/home/runner/work/ad-rss-lib/ad-rss-lib/ad_rss_map_integration/impl/src/RssSceneCreation.cpp
FN:31,_ZN2ad3rss3map16RssSceneCreationC2ERKmRKNS0_5world11RssDynamicsE
FN:40,_ZN2ad3rss3map16RssSceneCreation13getWorldModelEv
FN:53,_ZN2ad3rss3map16RssSceneCreation12appendScenesERKNS1_13RssObjectDataERKNS_3map5route9FullRouteES5_RKNS2_22RestrictSpeedLimitModeERKSt3setINS6_8landmark10LandmarkIdESt4lessISG_ESaISG_EERKNS1_7RssModeE
FN:85,_ZN2ad3rss3map16RssSceneCreation22appendStructuredScenesERNS1_15RssSceneCreatorERKSt10shared_ptrIKNS1_19RssObjectConversionEERKNS_3map5route9FullRouteESA_
FN:460,_ZN2ad3rss3map16RssSceneCreation20appendRoadBoundariesERKNS1_13RssObjectDataERKNS_3map5route9FullRouteENS2_24AppendRoadBoundariesModeE
FN:511,_ZN2ad3rss3map16RssSceneCreation23appendSceneToWorldModelERKNS0_5world5SceneE
FN:526,_GLOBAL__sub_I_RssSceneCreation.cpp
FN:526,_Z41__static_initialization_and_destruction_0ii
FNDA:0,_ZN2ad3rss3map16RssSceneCreationC2ERKmRKNS0_5world11RssDynamicsE
FNDA:0,_ZN2ad3rss3map16RssSceneCreation13getWorldModelEv
FNDA:0,_ZN2ad3rss3map16RssSceneCreation12appendScenesERKNS1_13RssObjectDataERKNS_3map5route9FullRouteES5_RKNS2_22RestrictSpeedLimitModeERKSt3setINS6_8landmark10LandmarkIdESt4lessISG_ESaISG_EERKNS1_7RssModeE
FNDA:0,_ZN2ad3rss3map16RssSceneCreation22appendStructuredScenesERNS1_15RssSceneCreatorERKSt10shared_ptrIKNS1_19RssObjectConversionEERKNS_3map5route9FullRouteESA_
FNDA:0,_ZN2ad3rss3map16RssSceneCreation20appendRoadBoundariesERKNS1_13RssObjectDataERKNS_3map5route9FullRouteENS2_24AppendRoadBoundariesModeE
FNDA:0,_ZN2ad3rss3map16RssSceneCreation23appendSceneToWorldModelERKNS0_5world5SceneE
FNDA:0,_GLOBAL__sub_I_RssSceneCreation.cpp
FNDA:0,_Z41__static_initialization_and_destruction_0ii
FNF:8
FNH:0
DA:29,0
DA:31,0
DA:34,0
DA:36,0
DA:37,0
DA:38,0
DA:40,0
DA:42,0
DA:43,0
DA:45,0
DA:46,0
DA:49,0
DA:50,0
DA:53,0
DA:60,0
DA:62,0
DA:63,0
DA:66,0
DA:67,0
DA:69,0
DA:71,0
DA:73,0
DA:75,0
DA:77,0
DA:81,0
DA:85,0
DA:90,0
DA:91,0
DA:93,0
DA:95,0
DA:96,0
DA:97,0
DA:100,0
DA:101,0
DA:103,0
DA:105,0
DA:106,0
DA:107,0
DA:109,0
DA:111,0
DA:112,0
DA:113,0
DA:118,0
DA:119,0
DA:121,0
DA:122,0
DA:123,0
DA:127,0
DA:131,0
DA:133,0
DA:135,0
DA:137,0
DA:138,0
DA:139,0
DA:140,0
DA:142,0
DA:144,0
DA:145,0
DA:146,0
DA:149,0
DA:150,0
DA:151,0
DA:154,0
DA:159,0
DA:160,0
DA:161,0
DA:165,0
DA:166,0
DA:174,0
DA:175,0
DA:178,0
DA:182,0
DA:184,0
DA:185,0
DA:187,0
DA:188,0
DA:190,0
DA:192,0
DA:193,0
DA:197,0
DA:199,0
DA:201,0
DA:205,0
DA:207,0
DA:210,0
DA:211,0
DA:212,0
DA:213,0
DA:214,0
DA:215,0
DA:221,0
DA:224,0
DA:226,0
DA:228,0
DA:231,0
DA:232,0
DA:233,0
DA:234,0
DA:235,0
DA:236,0
DA:244,0
DA:247,0
DA:248,0
DA:249,0
DA:250,0
DA:251,0
DA:252,0
DA:257,0
DA:260,0
DA:262,0
DA:263,0
DA:269,0
DA:270,0
DA:272,0
DA:274,0
DA:275,0
DA:276,0
DA:277,0
DA:278,0
DA:279,0
DA:285,0
DA:286,0
DA:288,0
DA:289,0
DA:290,0
DA:295,0
DA:296,0
DA:302,0
DA:306,0
DA:307,0
DA:308,0
DA:309,0
DA:310,0
DA:311,0
DA:315,0
DA:316,0
DA:319,0
DA:321,0
DA:325,0
DA:327,0
DA:329,0
DA:332,0
DA:335,0
DA:337,0
DA:346,0
DA:350,0
DA:353,0
DA:354,0
DA:355,0
DA:356,0
DA:357,0
DA:358,0
DA:360,0
DA:361,0
DA:363,0
DA:366,0
DA:370,0
DA:373,0
DA:374,0
DA:375,0
DA:376,0
DA:377,0
DA:386,0
DA:391,0
DA:394,0
DA:395,0
DA:396,0
DA:397,0
DA:398,0
DA:399,0
DA:404,0
DA:408,0
DA:411,0
DA:412,0
DA:413,0
DA:414,0
DA:415,0
DA:416,0
DA:424,0
DA:426,0
DA:427,0
DA:430,0
DA:432,0
DA:434,0
DA:437,0
DA:440,0
DA:444,0
DA:448,0
DA:451,0
DA:453,0
DA:454,0
DA:457,0
DA:460,0
DA:464,0
DA:466,0
DA:467,0
DA:469,0
DA:471,0
DA:472,0
DA:475,0
DA:477,0
DA:479,0
DA:483,0
DA:484,0
DA:486,0
DA:488,0
DA:490,0
DA:492,0
DA:495,0
DA:497,0
DA:498,0
DA:501,0
DA:502,0
DA:504,0
DA:506,0
DA:508,0
DA:511,0
DA:513,0
DA:514,0
DA:516,0
DA:517,0
DA:520,0
DA:521,0
DA:526,0
LF:224
LH:0
end_of_record
TN:
SF:/home/runner/work/ad-rss-lib/ad-rss-lib/ad_rss_map_integration/impl/src/RssObjectConversion.cpp
FN:23,_ZN2ad3rss3map19RssObjectConversionC2ERKNS1_13RssObjectDataE
FN:38,_ZN2ad3rss3map19RssObjectConversionC2ERKNS1_13RssObjectDataERKSt6vectorINS0_5world14OccupiedRegionESaIS8_EE
FN:54,_ZN2ad3rss3map19RssObjectConversion19initializeRssObjectERKmRKNS0_5world10ObjectTypeERKSt6vectorINS5_14OccupiedRegionESaISA_EERKNS_3map5match17ENUObjectPositionERKNS_7physics5SpeedERKNSK_15AngularVelocityERKNSK_5AngleE
FN:90,_ZNK2ad3rss3map19RssObjectConversion25isOriginalSpeedAcceptableENS_7physics5SpeedE
FN:103,_ZNK2ad3rss3map19RssObjectConversion12getRssObjectEv
FN:108,_ZNK2ad3rss3map19RssObjectConversion5getIdEv
FN:113,_ZNK2ad3rss3map19RssObjectConversion14getRssDynamicsEv
FN:123,_ZNK2ad3rss3map19RssObjectConversion28calculateMinStoppingDistanceERNS_7physics8DistanceE
FN:144,_ZN2ad3rss3map19RssObjectConversion16updateSpeedLimitERKNS_7physics5SpeedE
FN:149,_ZN2ad3rss3map19RssObjectConversion27addRestrictedOccupiedRegionERKNS_3map5match18LaneOccupiedRegionERKNS3_5route12LaneIntervalE
FN:205,_ZN2ad3rss3map19RssObjectConversion17laneIntervalAddedERKNS_3map5route12LaneIntervalE
FN:212,_ZZN2ad3rss3map19RssObjectConversion17laneIntervalAddedERKNS_3map5route12LaneIntervalEENKUlRKNS3_5match18LaneOccupiedRegionEE_clESB_
FN:222,_ZN2ad3rss3map19RssObjectConversion21updateVelocityOnRouteERKNS_3map5route9FullRouteE
FN:241,_GLOBAL__sub_I_RssObjectConversion.cpp
FN:241,_Z41__static_initialization_and_destruction_0ii
FNDA:0,_ZN2ad3rss3map19RssObjectConversionC2ERKNS1_13RssObjectDataE
FNDA:0,_ZN2ad3rss3map19RssObjectConversionC2ERKNS1_13RssObjectDataERKSt6vectorINS0_5world14OccupiedRegionESaIS8_EE
FNDA:0,_ZN2ad3rss3map19RssObjectConversion19initializeRssObjectERKmRKNS0_5world10ObjectTypeERKSt6vectorINS5_14OccupiedRegionESaISA_EERKNS_3map5match17ENUObjectPositionERKNS_7physics5SpeedERKNSK_15AngularVelocityERKNSK_5AngleE
FNDA:0,_ZNK2ad3rss3map19RssObjectConversion25isOriginalSpeedAcceptableENS_7physics5SpeedE
FNDA:0,_ZNK2ad3rss3map19RssObjectConversion12getRssObjectEv
FNDA:0,_ZNK2ad3rss3map19RssObjectConversion5getIdEv
FNDA:0,_ZNK2ad3rss3map19RssObjectConversion14getRssDynamicsEv
FNDA:0,_ZNK2ad3rss3map19RssObjectConversion28calculateMinStoppingDistanceERNS_7physics8DistanceE
FNDA:0,_ZN2ad3rss3map19RssObjectConversion16updateSpeedLimitERKNS_7physics5SpeedE
FNDA:0,_ZN2ad3rss3map19RssObjectConversion27addRestrictedOccupiedRegionERKNS_3map5match18LaneOccupiedRegionERKNS3_5route12LaneIntervalE
FNDA:0,_ZN2ad3rss3map19RssObjectConversion17laneIntervalAddedERKNS_3map5route12LaneIntervalE
FNDA:0,_ZZN2ad3rss3map19RssObjectConversion17laneIntervalAddedERKNS_3map5route12LaneIntervalEENKUlRKNS3_5match18LaneOccupiedRegionEE_clESB_
FNDA:0,_ZN2ad3rss3map19RssObjectConversion21updateVelocityOnRouteERKNS_3map5route9FullRouteE
FNDA:0,_GLOBAL__sub_I_RssObjectConversion.cpp
FNDA:0,_Z41__static_initialization_and_destruction_0ii
FNF:15
FNH:0
DA:23,0
DA:27,0
DA:29,0
DA:35,0
DA:36,0
DA:38,0
DA:43,0
DA:45,0
DA:51,0
DA:52,0
DA:54,0
DA:62,0
DA:63,0
DA:64,0
DA:65,0
DA:66,0
DA:67,0
DA:68,0
DA:70,0
DA:71,0
DA:72,0
DA:73,0
DA:74,0
DA:75,0
DA:78,0
DA:79,0
DA:82,0
DA:86,0
DA:88,0
DA:90,0
DA:92,0
DA:94,0
DA:96,0
DA:98,0
DA:100,0
DA:103,0
DA:105,0
DA:108,0
DA:110,0
DA:113,0
DA:115,0
DA:116,0
DA:118,0
DA:120,0
DA:123,0
DA:126,0
DA:127,0
DA:128,0
DA:129,0
DA:130,0
DA:131,0
DA:133,0
DA:135,0
DA:139,0
DA:141,0
DA:144,0
DA:146,0
DA:147,0
DA:149,0
DA:152,0
DA:153,0
DA:155,0
DA:156,0
DA:158,0
DA:159,0
DA:161,0
DA:162,0
DA:163,0
DA:167,0
DA:168,0
DA:169,0
DA:173,0
DA:174,0
DA:176,0
DA:177,0
DA:182,0
DA:183,0
DA:185,0
DA:186,0
DA:189,0
DA:190,0
DA:192,0
DA:193,0
DA:195,0
DA:197,0
DA:200,0
DA:202,0
DA:203,0
DA:205,0
DA:207,0
DA:210,0
DA:211,0
DA:212,0
DA:213,0
DA:214,0
DA:215,0
DA:217,0
DA:220,0
DA:222,0
DA:224,0
DA:225,0
DA:227,0
DA:229,0
DA:232,0
DA:233,0
DA:235,0
DA:236,0
DA:237,0
DA:241,0
LF:109
LH:0
end_of_record
TN:
SF:/home/runner/work/ad-rss-lib/ad-rss-lib/ad_rss_map_integration/impl/src/Logging.cpp
FN:35,_ZN2ad3rss3map7Logging8instanceEv
FN:41,_ZN2ad3rss3map7LoggingC2Ev
FN:46,_ZN2ad3rss3map7LoggingD2Ev
FN:50,_ZN2ad3rss3map9getLoggerEv
FNDA:0,_ZN2ad3rss3map7Logging8instanceEv
FNDA:0,_ZN2ad3rss3map7LoggingC2Ev
FNDA:0,_ZN2ad3rss3map7LoggingD2Ev
FNDA:0,_ZN2ad3rss3map9getLoggerEv
FNF:4
FNH:0
DA:35,0
DA:37,0
DA:38,0
DA:41,0
DA:43,0
DA:44,0
DA:46,0
DA:48,0
DA:50,0
DA:52,0
LF:10
LH:0
end_of_record
